ccollections
defaultdict
p0
(c__builtin__
list
p1
tp2
Rp3
V3d2448c4-77e0-11e2-bad4-00163e005319
p4
(lp5
V3c32939e-77e0-11e2-bad4-00163e005319
p6
aV8a5f318a-77e0-11e2-bad4-00163e005319
p7
aV3dbbebd4-77e0-11e2-bad4-00163e005319
p8
aV3e252de2-77e0-11e2-83c4-00163e005319
p9
aV3c7272d4-77e0-11e2-83c4-00163e005319
p10
aV3c9d2d12-77e0-11e2-bad4-00163e005319
p11
asV845dd964-74c8-11e2-a42d-00163e005319
p12
(lp13
V837109c2-74c8-11e2-b454-00163e005319
p14
aV08a4c2c8-74c9-11e2-b454-00163e005319
p15
aV84ccb014-74c8-11e2-a42d-00163e005319
p16
aV84fa3ce6-74c8-11e2-b454-00163e005319
p17
aV2ac34510-f3d5-11e2-85c2-00163e005319
p18
aV83a5d1e8-74c8-11e2-a42d-00163e005319
p19
asVe8b4ab26-77df-11e2-83c4-00163e005319
p20
(lp21
Ve7697d5a-77df-11e2-83c4-00163e005319
p22
aV801cab8a-77e0-11e2-83c4-00163e005319
p23
aVe8e8f6f6-77df-11e2-bad4-00163e005319
p24
aVe7abd98e-77df-11e2-bad4-00163e005319
p25
aVe7dd2b1a-77df-11e2-83c4-00163e005319
p26
aVe84fe38a-77df-11e2-83c4-00163e005319
p27
asVc910f55e-77df-11e2-83c4-00163e005319
p28
(lp29
V7ca1ab36-77e0-11e2-83c4-00163e005319
p30
aVca4e1050-77df-11e2-83c4-00163e005319
p31
aVca874c6c-77df-11e2-bad4-00163e005319
p32
aVc949b6be-77df-11e2-bad4-00163e005319
p33
aVc977147e-77df-11e2-83c4-00163e005319
p34
aVc9e59fd4-77df-11e2-83c4-00163e005319
p35
asg26
(lp36
g22
ag23
ag20
ag24
ag25
ag27
asg33
(lp37
g28
ag30
ag31
ag32
ag34
ag35
asg24
(lp38
g22
ag23
ag20
ag25
ag26
ag27
asV2da913cc-f3d5-11e2-831d-00163e005319
p39
(lp40
Vac260138-74c8-11e2-a42d-00163e005319
p41
aV0d44dc28-74c9-11e2-a42d-00163e005319
p42
aVad54e524-74c8-11e2-a42d-00163e005319
p43
aVac5b3254-74c8-11e2-b454-00163e005319
p44
aVac92e640-74c8-11e2-a42d-00163e005319
p45
aVacf25576-74c8-11e2-a42d-00163e005319
p46
asg31
(lp47
g28
ag30
ag32
ag33
ag34
ag35
asg30
(lp48
g28
ag31
ag32
ag33
ag34
ag35
asV99061afc-74c8-11e2-a42d-00163e005319
p49
(lp50
V0b11475c-74c9-11e2-b454-00163e005319
p51
aV9a4c33ec-74c8-11e2-a42d-00163e005319
p52
aV2d7b3c90-f3d5-11e2-85c2-00163e005319
p53
aV99396038-74c8-11e2-b454-00163e005319
p54
aV996c6d16-74c8-11e2-a42d-00163e005319
p55
aV99e00b40-74c8-11e2-a42d-00163e005319
p56
asg27
(lp57
g22
ag23
ag20
ag24
ag25
ag26
asg41
(lp58
g42
ag43
ag39
ag44
ag45
ag46
asg11
(lp59
g6
ag7
ag8
ag9
ag10
ag4
asg8
(lp60
g6
ag7
ag9
ag10
ag11
ag4
asV19d45134-77e0-11e2-83c4-00163e005319
p61
(lp62
V196576ce-77e0-11e2-83c4-00163e005319
p63
aV85ce7ee6-77e0-11e2-bad4-00163e005319
p64
aV1b1c8872-77e0-11e2-83c4-00163e005319
p65
aV1b4b04d6-77e0-11e2-bad4-00163e005319
p66
aV1997c82c-77e0-11e2-bad4-00163e005319
p67
aV1a5ea4b0-77e0-11e2-83c4-00163e005319
p68
asg22
(lp69
g23
ag20
ag24
ag25
ag26
ag27
asg53
(lp70
g49
ag51
ag52
ag54
ag55
ag56
asg45
(lp71
g41
ag42
ag43
ag39
ag44
ag46
asg15
(lp72
g14
ag16
ag17
ag18
ag19
ag12
asg7
(lp73
g6
ag8
ag9
ag10
ag11
ag4
asg17
(lp74
g14
ag15
ag16
ag18
ag19
ag12
asg18
(lp75
g14
ag15
ag16
ag17
ag19
ag12
asg67
(lp76
g63
ag64
ag65
ag66
ag61
ag68
asg35
(lp77
g28
ag30
ag31
ag32
ag33
ag34
asg43
(lp78
g41
ag42
ag39
ag44
ag45
ag46
asg46
(lp79
g41
ag42
ag43
ag39
ag44
ag45
asg55
(lp80
g49
ag51
ag52
ag53
ag54
ag56
asg52
(lp81
g49
ag51
ag53
ag54
ag55
ag56
asg19
(lp82
g14
ag15
ag16
ag17
ag18
ag12
asg14
(lp83
g15
ag16
ag17
ag18
ag19
ag12
asg16
(lp84
g14
ag15
ag17
ag18
ag19
ag12
asg51
(lp85
g49
ag52
ag53
ag54
ag55
ag56
asg6
(lp86
g7
ag8
ag9
ag10
ag11
ag4
asg25
(lp87
g22
ag23
ag20
ag24
ag26
ag27
asg9
(lp88
g6
ag7
ag8
ag10
ag11
ag4
asg10
(lp89
g6
ag7
ag8
ag9
ag11
ag4
asg63
(lp90
g64
ag65
ag66
ag67
ag61
ag68
asg23
(lp91
g22
ag20
ag24
ag25
ag26
ag27
asg42
(lp92
g41
ag43
ag39
ag44
ag45
ag46
asg64
(lp93
g63
ag65
ag66
ag67
ag61
ag68
asg56
(lp94
g49
ag51
ag52
ag53
ag54
ag55
asg32
(lp95
g28
ag30
ag31
ag33
ag34
ag35
asg34
(lp96
g28
ag30
ag31
ag32
ag33
ag35
asg44
(lp97
g41
ag42
ag43
ag39
ag45
ag46
asg68
(lp98
g63
ag64
ag65
ag66
ag67
ag61
asg54
(lp99
g49
ag51
ag52
ag53
ag55
ag56
asg65
(lp100
g63
ag64
ag66
ag67
ag61
ag68
asg66
(lp101
g63
ag64
ag65
ag67
ag61
ag68
as.