ccollections
defaultdict
p0
(c__builtin__
list
p1
tp2
Rp3
V3d2448c4-77e0-11e2-bad4-00163e005319
p4
(lp5
V3c32939e-77e0-11e2-bad4-00163e005319
p6
aV8a5f318a-77e0-11e2-bad4-00163e005319
p7
aV3dbbebd4-77e0-11e2-bad4-00163e005319
p8
aV3e252de2-77e0-11e2-83c4-00163e005319
p9
aV3c7272d4-77e0-11e2-83c4-00163e005319
p10
aV3c9d2d12-77e0-11e2-bad4-00163e005319
p11
aV3c32939e-77e0-11e2-bad4-00163e005319
p12
aV8a5f318a-77e0-11e2-bad4-00163e005319
p13
aV3dbbebd4-77e0-11e2-bad4-00163e005319
p14
aV3e252de2-77e0-11e2-83c4-00163e005319
p15
aV3c7272d4-77e0-11e2-83c4-00163e005319
p16
aV3c9d2d12-77e0-11e2-bad4-00163e005319
p17
aV3c32939e-77e0-11e2-bad4-00163e005319
p18
aV8a5f318a-77e0-11e2-bad4-00163e005319
p19
aV3dbbebd4-77e0-11e2-bad4-00163e005319
p20
aV3e252de2-77e0-11e2-83c4-00163e005319
p21
aV3c7272d4-77e0-11e2-83c4-00163e005319
p22
aV3c9d2d12-77e0-11e2-bad4-00163e005319
p23
aV3c32939e-77e0-11e2-bad4-00163e005319
p24
aV8a5f318a-77e0-11e2-bad4-00163e005319
p25
aV3dbbebd4-77e0-11e2-bad4-00163e005319
p26
aV3e252de2-77e0-11e2-83c4-00163e005319
p27
aV3c7272d4-77e0-11e2-83c4-00163e005319
p28
aV3c9d2d12-77e0-11e2-bad4-00163e005319
p29
aV3c32939e-77e0-11e2-bad4-00163e005319
p30
aV8a5f318a-77e0-11e2-bad4-00163e005319
p31
aV3dbbebd4-77e0-11e2-bad4-00163e005319
p32
aV3e252de2-77e0-11e2-83c4-00163e005319
p33
aV3c7272d4-77e0-11e2-83c4-00163e005319
p34
aV3c9d2d12-77e0-11e2-bad4-00163e005319
p35
aV3c32939e-77e0-11e2-bad4-00163e005319
p36
aV8a5f318a-77e0-11e2-bad4-00163e005319
p37
aV3dbbebd4-77e0-11e2-bad4-00163e005319
p38
aV3e252de2-77e0-11e2-83c4-00163e005319
p39
aV3c7272d4-77e0-11e2-83c4-00163e005319
p40
aV3c9d2d12-77e0-11e2-bad4-00163e005319
p41
aV3c32939e-77e0-11e2-bad4-00163e005319
p42
aV8a5f318a-77e0-11e2-bad4-00163e005319
p43
aV3dbbebd4-77e0-11e2-bad4-00163e005319
p44
aV3e252de2-77e0-11e2-83c4-00163e005319
p45
aV3c7272d4-77e0-11e2-83c4-00163e005319
p46
aV3c9d2d12-77e0-11e2-bad4-00163e005319
p47
aV3c32939e-77e0-11e2-bad4-00163e005319
p48
aV8a5f318a-77e0-11e2-bad4-00163e005319
p49
aV3dbbebd4-77e0-11e2-bad4-00163e005319
p50
aV3e252de2-77e0-11e2-83c4-00163e005319
p51
aV3c7272d4-77e0-11e2-83c4-00163e005319
p52
aV3c9d2d12-77e0-11e2-bad4-00163e005319
p53
ag6
ag7
ag8
ag9
ag10
ag11
ag12
ag13
ag14
ag15
ag16
ag17
ag18
ag19
ag20
ag21
ag22
ag23
ag24
ag25
ag26
ag27
ag28
ag29
ag30
ag31
ag32
ag33
ag34
ag35
ag36
ag37
ag38
ag39
ag40
ag41
ag42
ag43
ag44
ag45
ag46
ag47
ag48
ag49
ag50
ag51
ag52
ag53
ag6
ag7
ag8
ag9
ag10
ag11
ag12
ag13
ag14
ag15
ag16
ag17
ag18
ag19
ag20
ag21
ag22
ag23
ag24
ag25
ag26
ag27
ag28
ag29
ag30
ag31
ag32
ag33
ag34
ag35
ag36
ag37
ag38
ag39
ag40
ag41
ag42
ag43
ag44
ag45
ag46
ag47
ag48
ag49
ag50
ag51
ag52
ag53
ag6
ag7
ag8
ag9
ag10
ag11
ag12
ag13
ag14
ag15
ag16
ag17
ag18
ag19
ag20
ag21
ag22
ag23
ag24
ag25
ag26
ag27
ag28
ag29
ag30
ag31
ag32
ag33
ag34
ag35
ag36
ag37
ag38
ag39
ag40
ag41
ag42
ag43
ag44
ag45
ag46
ag47
ag48
ag49
ag50
ag51
ag52
ag53
ag6
ag7
ag8
ag9
ag10
ag11
ag12
ag13
ag14
ag15
ag16
ag17
ag18
ag19
ag20
ag21
ag22
ag23
ag24
ag25
ag26
ag27
ag28
ag29
ag30
ag31
ag32
ag33
ag34
ag35
ag36
ag37
ag38
ag39
ag40
ag41
ag42
ag43
ag44
ag45
ag46
ag47
ag48
ag49
ag50
ag51
ag52
ag53
ag6
ag7
ag8
ag9
ag10
ag11
ag12
ag13
ag14
ag15
ag16
ag17
ag18
ag19
ag20
ag21
ag22
ag23
ag24
ag25
ag26
ag27
ag28
ag29
ag30
ag31
ag32
ag33
ag34
ag35
ag36
ag37
ag38
ag39
ag40
ag41
ag42
ag43
ag44
ag45
ag46
ag47
ag48
ag49
ag50
ag51
ag52
ag53
ag6
ag7
ag8
ag9
ag10
ag11
ag12
ag13
ag14
ag15
ag16
ag17
ag18
ag19
ag20
ag21
ag22
ag23
ag24
ag25
ag26
ag27
ag28
ag29
ag30
ag31
ag32
ag33
ag34
ag35
ag36
ag37
ag38
ag39
ag40
ag41
ag42
ag43
ag44
ag45
ag46
ag47
ag48
ag49
ag50
ag51
ag52
ag53
ag6
ag7
ag8
ag9
ag10
ag11
ag12
ag13
ag14
ag15
ag16
ag17
ag18
ag19
ag20
ag21
ag22
ag23
ag24
ag25
ag26
ag27
ag28
ag29
ag30
ag31
ag32
ag33
ag34
ag35
ag36
ag37
ag38
ag39
ag40
ag41
ag42
ag43
ag44
ag45
ag46
ag47
ag48
ag49
ag50
ag51
ag52
ag53
asV845dd964-74c8-11e2-a42d-00163e005319
p54
(lp55
V837109c2-74c8-11e2-b454-00163e005319
p56
aV08a4c2c8-74c9-11e2-b454-00163e005319
p57
aV84ccb014-74c8-11e2-a42d-00163e005319
p58
aV84fa3ce6-74c8-11e2-b454-00163e005319
p59
aV2ac34510-f3d5-11e2-85c2-00163e005319
p60
aV83a5d1e8-74c8-11e2-a42d-00163e005319
p61
aV837109c2-74c8-11e2-b454-00163e005319
p62
aV08a4c2c8-74c9-11e2-b454-00163e005319
p63
aV84ccb014-74c8-11e2-a42d-00163e005319
p64
aV84fa3ce6-74c8-11e2-b454-00163e005319
p65
aV2ac34510-f3d5-11e2-85c2-00163e005319
p66
aV83a5d1e8-74c8-11e2-a42d-00163e005319
p67
aV837109c2-74c8-11e2-b454-00163e005319
p68
aV08a4c2c8-74c9-11e2-b454-00163e005319
p69
aV84ccb014-74c8-11e2-a42d-00163e005319
p70
aV84fa3ce6-74c8-11e2-b454-00163e005319
p71
aV2ac34510-f3d5-11e2-85c2-00163e005319
p72
aV83a5d1e8-74c8-11e2-a42d-00163e005319
p73
aV837109c2-74c8-11e2-b454-00163e005319
p74
aV08a4c2c8-74c9-11e2-b454-00163e005319
p75
aV84ccb014-74c8-11e2-a42d-00163e005319
p76
aV84fa3ce6-74c8-11e2-b454-00163e005319
p77
aV2ac34510-f3d5-11e2-85c2-00163e005319
p78
aV83a5d1e8-74c8-11e2-a42d-00163e005319
p79
aV837109c2-74c8-11e2-b454-00163e005319
p80
aV08a4c2c8-74c9-11e2-b454-00163e005319
p81
aV84ccb014-74c8-11e2-a42d-00163e005319
p82
aV84fa3ce6-74c8-11e2-b454-00163e005319
p83
aV2ac34510-f3d5-11e2-85c2-00163e005319
p84
aV83a5d1e8-74c8-11e2-a42d-00163e005319
p85
aV837109c2-74c8-11e2-b454-00163e005319
p86
aV08a4c2c8-74c9-11e2-b454-00163e005319
p87
aV84ccb014-74c8-11e2-a42d-00163e005319
p88
aV84fa3ce6-74c8-11e2-b454-00163e005319
p89
aV2ac34510-f3d5-11e2-85c2-00163e005319
p90
aV83a5d1e8-74c8-11e2-a42d-00163e005319
p91
aV837109c2-74c8-11e2-b454-00163e005319
p92
aV08a4c2c8-74c9-11e2-b454-00163e005319
p93
aV84ccb014-74c8-11e2-a42d-00163e005319
p94
aV84fa3ce6-74c8-11e2-b454-00163e005319
p95
aV2ac34510-f3d5-11e2-85c2-00163e005319
p96
aV83a5d1e8-74c8-11e2-a42d-00163e005319
p97
aV837109c2-74c8-11e2-b454-00163e005319
p98
aV08a4c2c8-74c9-11e2-b454-00163e005319
p99
aV84ccb014-74c8-11e2-a42d-00163e005319
p100
aV84fa3ce6-74c8-11e2-b454-00163e005319
p101
aV2ac34510-f3d5-11e2-85c2-00163e005319
p102
aV83a5d1e8-74c8-11e2-a42d-00163e005319
p103
ag56
ag57
ag58
ag59
ag60
ag61
ag62
ag63
ag64
ag65
ag66
ag67
ag68
ag69
ag70
ag71
ag72
ag73
ag74
ag75
ag76
ag77
ag78
ag79
ag80
ag81
ag82
ag83
ag84
ag85
ag86
ag87
ag88
ag89
ag90
ag91
ag92
ag93
ag94
ag95
ag96
ag97
ag98
ag99
ag100
ag101
ag102
ag103
ag56
ag57
ag58
ag59
ag60
ag61
ag62
ag63
ag64
ag65
ag66
ag67
ag68
ag69
ag70
ag71
ag72
ag73
ag74
ag75
ag76
ag77
ag78
ag79
ag80
ag81
ag82
ag83
ag84
ag85
ag86
ag87
ag88
ag89
ag90
ag91
ag92
ag93
ag94
ag95
ag96
ag97
ag98
ag99
ag100
ag101
ag102
ag103
ag56
ag57
ag58
ag59
ag60
ag61
ag62
ag63
ag64
ag65
ag66
ag67
ag68
ag69
ag70
ag71
ag72
ag73
ag74
ag75
ag76
ag77
ag78
ag79
ag80
ag81
ag82
ag83
ag84
ag85
ag86
ag87
ag88
ag89
ag90
ag91
ag92
ag93
ag94
ag95
ag96
ag97
ag98
ag99
ag100
ag101
ag102
ag103
ag56
ag57
ag58
ag59
ag60
ag61
ag62
ag63
ag64
ag65
ag66
ag67
ag68
ag69
ag70
ag71
ag72
ag73
ag74
ag75
ag76
ag77
ag78
ag79
ag80
ag81
ag82
ag83
ag84
ag85
ag86
ag87
ag88
ag89
ag90
ag91
ag92
ag93
ag94
ag95
ag96
ag97
ag98
ag99
ag100
ag101
ag102
ag103
ag56
ag57
ag58
ag59
ag60
ag61
ag62
ag63
ag64
ag65
ag66
ag67
ag68
ag69
ag70
ag71
ag72
ag73
ag74
ag75
ag76
ag77
ag78
ag79
ag80
ag81
ag82
ag83
ag84
ag85
ag86
ag87
ag88
ag89
ag90
ag91
ag92
ag93
ag94
ag95
ag96
ag97
ag98
ag99
ag100
ag101
ag102
ag103
ag56
ag57
ag58
ag59
ag60
ag61
ag62
ag63
ag64
ag65
ag66
ag67
ag68
ag69
ag70
ag71
ag72
ag73
ag74
ag75
ag76
ag77
ag78
ag79
ag80
ag81
ag82
ag83
ag84
ag85
ag86
ag87
ag88
ag89
ag90
ag91
ag92
ag93
ag94
ag95
ag96
ag97
ag98
ag99
ag100
ag101
ag102
ag103
ag56
ag57
ag58
ag59
ag60
ag61
ag62
ag63
ag64
ag65
ag66
ag67
ag68
ag69
ag70
ag71
ag72
ag73
ag74
ag75
ag76
ag77
ag78
ag79
ag80
ag81
ag82
ag83
ag84
ag85
ag86
ag87
ag88
ag89
ag90
ag91
ag92
ag93
ag94
ag95
ag96
ag97
ag98
ag99
ag100
ag101
ag102
ag103
asVe8b4ab26-77df-11e2-83c4-00163e005319
p104
(lp105
Ve7697d5a-77df-11e2-83c4-00163e005319
p106
aV801cab8a-77e0-11e2-83c4-00163e005319
p107
aVe8e8f6f6-77df-11e2-bad4-00163e005319
p108
aVe7abd98e-77df-11e2-bad4-00163e005319
p109
aVe7dd2b1a-77df-11e2-83c4-00163e005319
p110
aVe84fe38a-77df-11e2-83c4-00163e005319
p111
aVe7697d5a-77df-11e2-83c4-00163e005319
p112
aV801cab8a-77e0-11e2-83c4-00163e005319
p113
aVe8e8f6f6-77df-11e2-bad4-00163e005319
p114
aVe7abd98e-77df-11e2-bad4-00163e005319
p115
aVe7dd2b1a-77df-11e2-83c4-00163e005319
p116
aVe84fe38a-77df-11e2-83c4-00163e005319
p117
aVe7697d5a-77df-11e2-83c4-00163e005319
p118
aV801cab8a-77e0-11e2-83c4-00163e005319
p119
aVe8e8f6f6-77df-11e2-bad4-00163e005319
p120
aVe7abd98e-77df-11e2-bad4-00163e005319
p121
aVe7dd2b1a-77df-11e2-83c4-00163e005319
p122
aVe84fe38a-77df-11e2-83c4-00163e005319
p123
aVe7697d5a-77df-11e2-83c4-00163e005319
p124
aV801cab8a-77e0-11e2-83c4-00163e005319
p125
aVe8e8f6f6-77df-11e2-bad4-00163e005319
p126
aVe7abd98e-77df-11e2-bad4-00163e005319
p127
aVe7dd2b1a-77df-11e2-83c4-00163e005319
p128
aVe84fe38a-77df-11e2-83c4-00163e005319
p129
aVe7697d5a-77df-11e2-83c4-00163e005319
p130
aV801cab8a-77e0-11e2-83c4-00163e005319
p131
aVe8e8f6f6-77df-11e2-bad4-00163e005319
p132
aVe7abd98e-77df-11e2-bad4-00163e005319
p133
aVe7dd2b1a-77df-11e2-83c4-00163e005319
p134
aVe84fe38a-77df-11e2-83c4-00163e005319
p135
aVe7697d5a-77df-11e2-83c4-00163e005319
p136
aV801cab8a-77e0-11e2-83c4-00163e005319
p137
aVe8e8f6f6-77df-11e2-bad4-00163e005319
p138
aVe7abd98e-77df-11e2-bad4-00163e005319
p139
aVe7dd2b1a-77df-11e2-83c4-00163e005319
p140
aVe84fe38a-77df-11e2-83c4-00163e005319
p141
aVe7697d5a-77df-11e2-83c4-00163e005319
p142
aV801cab8a-77e0-11e2-83c4-00163e005319
p143
aVe8e8f6f6-77df-11e2-bad4-00163e005319
p144
aVe7abd98e-77df-11e2-bad4-00163e005319
p145
aVe7dd2b1a-77df-11e2-83c4-00163e005319
p146
aVe84fe38a-77df-11e2-83c4-00163e005319
p147
aVe7697d5a-77df-11e2-83c4-00163e005319
p148
aV801cab8a-77e0-11e2-83c4-00163e005319
p149
aVe8e8f6f6-77df-11e2-bad4-00163e005319
p150
aVe7abd98e-77df-11e2-bad4-00163e005319
p151
aVe7dd2b1a-77df-11e2-83c4-00163e005319
p152
aVe84fe38a-77df-11e2-83c4-00163e005319
p153
ag106
ag107
ag108
ag109
ag110
ag111
ag112
ag113
ag114
ag115
ag116
ag117
ag118
ag119
ag120
ag121
ag122
ag123
ag124
ag125
ag126
ag127
ag128
ag129
ag130
ag131
ag132
ag133
ag134
ag135
ag136
ag137
ag138
ag139
ag140
ag141
ag142
ag143
ag144
ag145
ag146
ag147
ag148
ag149
ag150
ag151
ag152
ag153
ag106
ag107
ag108
ag109
ag110
ag111
ag112
ag113
ag114
ag115
ag116
ag117
ag118
ag119
ag120
ag121
ag122
ag123
ag124
ag125
ag126
ag127
ag128
ag129
ag130
ag131
ag132
ag133
ag134
ag135
ag136
ag137
ag138
ag139
ag140
ag141
ag142
ag143
ag144
ag145
ag146
ag147
ag148
ag149
ag150
ag151
ag152
ag153
ag106
ag107
ag108
ag109
ag110
ag111
ag112
ag113
ag114
ag115
ag116
ag117
ag118
ag119
ag120
ag121
ag122
ag123
ag124
ag125
ag126
ag127
ag128
ag129
ag130
ag131
ag132
ag133
ag134
ag135
ag136
ag137
ag138
ag139
ag140
ag141
ag142
ag143
ag144
ag145
ag146
ag147
ag148
ag149
ag150
ag151
ag152
ag153
ag106
ag107
ag108
ag109
ag110
ag111
ag112
ag113
ag114
ag115
ag116
ag117
ag118
ag119
ag120
ag121
ag122
ag123
ag124
ag125
ag126
ag127
ag128
ag129
ag130
ag131
ag132
ag133
ag134
ag135
ag136
ag137
ag138
ag139
ag140
ag141
ag142
ag143
ag144
ag145
ag146
ag147
ag148
ag149
ag150
ag151
ag152
ag153
ag106
ag107
ag108
ag109
ag110
ag111
ag112
ag113
ag114
ag115
ag116
ag117
ag118
ag119
ag120
ag121
ag122
ag123
ag124
ag125
ag126
ag127
ag128
ag129
ag130
ag131
ag132
ag133
ag134
ag135
ag136
ag137
ag138
ag139
ag140
ag141
ag142
ag143
ag144
ag145
ag146
ag147
ag148
ag149
ag150
ag151
ag152
ag153
ag106
ag107
ag108
ag109
ag110
ag111
ag112
ag113
ag114
ag115
ag116
ag117
ag118
ag119
ag120
ag121
ag122
ag123
ag124
ag125
ag126
ag127
ag128
ag129
ag130
ag131
ag132
ag133
ag134
ag135
ag136
ag137
ag138
ag139
ag140
ag141
ag142
ag143
ag144
ag145
ag146
ag147
ag148
ag149
ag150
ag151
ag152
ag153
ag106
ag107
ag108
ag109
ag110
ag111
ag112
ag113
ag114
ag115
ag116
ag117
ag118
ag119
ag120
ag121
ag122
ag123
ag124
ag125
ag126
ag127
ag128
ag129
ag130
ag131
ag132
ag133
ag134
ag135
ag136
ag137
ag138
ag139
ag140
ag141
ag142
ag143
ag144
ag145
ag146
ag147
ag148
ag149
ag150
ag151
ag152
ag153
asVc910f55e-77df-11e2-83c4-00163e005319
p154
(lp155
V7ca1ab36-77e0-11e2-83c4-00163e005319
p156
aVca4e1050-77df-11e2-83c4-00163e005319
p157
aVca874c6c-77df-11e2-bad4-00163e005319
p158
aVc949b6be-77df-11e2-bad4-00163e005319
p159
aVc977147e-77df-11e2-83c4-00163e005319
p160
aVc9e59fd4-77df-11e2-83c4-00163e005319
p161
aV7ca1ab36-77e0-11e2-83c4-00163e005319
p162
aVca4e1050-77df-11e2-83c4-00163e005319
p163
aVca874c6c-77df-11e2-bad4-00163e005319
p164
aVc949b6be-77df-11e2-bad4-00163e005319
p165
aVc977147e-77df-11e2-83c4-00163e005319
p166
aVc9e59fd4-77df-11e2-83c4-00163e005319
p167
aV7ca1ab36-77e0-11e2-83c4-00163e005319
p168
aVca4e1050-77df-11e2-83c4-00163e005319
p169
aVca874c6c-77df-11e2-bad4-00163e005319
p170
aVc949b6be-77df-11e2-bad4-00163e005319
p171
aVc977147e-77df-11e2-83c4-00163e005319
p172
aVc9e59fd4-77df-11e2-83c4-00163e005319
p173
aV7ca1ab36-77e0-11e2-83c4-00163e005319
p174
aVca4e1050-77df-11e2-83c4-00163e005319
p175
aVca874c6c-77df-11e2-bad4-00163e005319
p176
aVc949b6be-77df-11e2-bad4-00163e005319
p177
aVc977147e-77df-11e2-83c4-00163e005319
p178
aVc9e59fd4-77df-11e2-83c4-00163e005319
p179
aV7ca1ab36-77e0-11e2-83c4-00163e005319
p180
aVca4e1050-77df-11e2-83c4-00163e005319
p181
aVca874c6c-77df-11e2-bad4-00163e005319
p182
aVc949b6be-77df-11e2-bad4-00163e005319
p183
aVc977147e-77df-11e2-83c4-00163e005319
p184
aVc9e59fd4-77df-11e2-83c4-00163e005319
p185
aV7ca1ab36-77e0-11e2-83c4-00163e005319
p186
aVca4e1050-77df-11e2-83c4-00163e005319
p187
aVca874c6c-77df-11e2-bad4-00163e005319
p188
aVc949b6be-77df-11e2-bad4-00163e005319
p189
aVc977147e-77df-11e2-83c4-00163e005319
p190
aVc9e59fd4-77df-11e2-83c4-00163e005319
p191
aV7ca1ab36-77e0-11e2-83c4-00163e005319
p192
aVca4e1050-77df-11e2-83c4-00163e005319
p193
aVca874c6c-77df-11e2-bad4-00163e005319
p194
aVc949b6be-77df-11e2-bad4-00163e005319
p195
aVc977147e-77df-11e2-83c4-00163e005319
p196
aVc9e59fd4-77df-11e2-83c4-00163e005319
p197
aV7ca1ab36-77e0-11e2-83c4-00163e005319
p198
aVca4e1050-77df-11e2-83c4-00163e005319
p199
aVca874c6c-77df-11e2-bad4-00163e005319
p200
aVc949b6be-77df-11e2-bad4-00163e005319
p201
aVc977147e-77df-11e2-83c4-00163e005319
p202
aVc9e59fd4-77df-11e2-83c4-00163e005319
p203
ag156
ag157
ag158
ag159
ag160
ag161
ag162
ag163
ag164
ag165
ag166
ag167
ag168
ag169
ag170
ag171
ag172
ag173
ag174
ag175
ag176
ag177
ag178
ag179
ag180
ag181
ag182
ag183
ag184
ag185
ag186
ag187
ag188
ag189
ag190
ag191
ag192
ag193
ag194
ag195
ag196
ag197
ag198
ag199
ag200
ag201
ag202
ag203
ag156
ag157
ag158
ag159
ag160
ag161
ag162
ag163
ag164
ag165
ag166
ag167
ag168
ag169
ag170
ag171
ag172
ag173
ag174
ag175
ag176
ag177
ag178
ag179
ag180
ag181
ag182
ag183
ag184
ag185
ag186
ag187
ag188
ag189
ag190
ag191
ag192
ag193
ag194
ag195
ag196
ag197
ag198
ag199
ag200
ag201
ag202
ag203
ag156
ag157
ag158
ag159
ag160
ag161
ag162
ag163
ag164
ag165
ag166
ag167
ag168
ag169
ag170
ag171
ag172
ag173
ag174
ag175
ag176
ag177
ag178
ag179
ag180
ag181
ag182
ag183
ag184
ag185
ag186
ag187
ag188
ag189
ag190
ag191
ag192
ag193
ag194
ag195
ag196
ag197
ag198
ag199
ag200
ag201
ag202
ag203
ag156
ag157
ag158
ag159
ag160
ag161
ag162
ag163
ag164
ag165
ag166
ag167
ag168
ag169
ag170
ag171
ag172
ag173
ag174
ag175
ag176
ag177
ag178
ag179
ag180
ag181
ag182
ag183
ag184
ag185
ag186
ag187
ag188
ag189
ag190
ag191
ag192
ag193
ag194
ag195
ag196
ag197
ag198
ag199
ag200
ag201
ag202
ag203
ag156
ag157
ag158
ag159
ag160
ag161
ag162
ag163
ag164
ag165
ag166
ag167
ag168
ag169
ag170
ag171
ag172
ag173
ag174
ag175
ag176
ag177
ag178
ag179
ag180
ag181
ag182
ag183
ag184
ag185
ag186
ag187
ag188
ag189
ag190
ag191
ag192
ag193
ag194
ag195
ag196
ag197
ag198
ag199
ag200
ag201
ag202
ag203
ag156
ag157
ag158
ag159
ag160
ag161
ag162
ag163
ag164
ag165
ag166
ag167
ag168
ag169
ag170
ag171
ag172
ag173
ag174
ag175
ag176
ag177
ag178
ag179
ag180
ag181
ag182
ag183
ag184
ag185
ag186
ag187
ag188
ag189
ag190
ag191
ag192
ag193
ag194
ag195
ag196
ag197
ag198
ag199
ag200
ag201
ag202
ag203
ag156
ag157
ag158
ag159
ag160
ag161
ag162
ag163
ag164
ag165
ag166
ag167
ag168
ag169
ag170
ag171
ag172
ag173
ag174
ag175
ag176
ag177
ag178
ag179
ag180
ag181
ag182
ag183
ag184
ag185
ag186
ag187
ag188
ag189
ag190
ag191
ag192
ag193
ag194
ag195
ag196
ag197
ag198
ag199
ag200
ag201
ag202
ag203
asg110
(lp204
g106
ag107
ag104
ag108
ag109
ag111
ag112
ag113
aVe8b4ab26-77df-11e2-83c4-00163e005319
p205
ag114
ag115
ag117
ag118
ag119
aVe8b4ab26-77df-11e2-83c4-00163e005319
p206
ag120
ag121
ag123
ag124
ag125
aVe8b4ab26-77df-11e2-83c4-00163e005319
p207
ag126
ag127
ag129
ag130
ag131
aVe8b4ab26-77df-11e2-83c4-00163e005319
p208
ag132
ag133
ag135
ag136
ag137
aVe8b4ab26-77df-11e2-83c4-00163e005319
p209
ag138
ag139
ag141
ag142
ag143
aVe8b4ab26-77df-11e2-83c4-00163e005319
p210
ag144
ag145
ag147
ag148
ag149
aVe8b4ab26-77df-11e2-83c4-00163e005319
p211
ag150
ag151
ag153
ag106
ag107
ag104
ag108
ag109
ag111
ag112
ag113
ag205
ag114
ag115
ag117
ag118
ag119
ag206
ag120
ag121
ag123
ag124
ag125
ag207
ag126
ag127
ag129
ag130
ag131
ag208
ag132
ag133
ag135
ag136
ag137
ag209
ag138
ag139
ag141
ag142
ag143
ag210
ag144
ag145
ag147
ag148
ag149
ag211
ag150
ag151
ag153
ag106
ag107
ag104
ag108
ag109
ag111
ag112
ag113
ag205
ag114
ag115
ag117
ag118
ag119
ag206
ag120
ag121
ag123
ag124
ag125
ag207
ag126
ag127
ag129
ag130
ag131
ag208
ag132
ag133
ag135
ag136
ag137
ag209
ag138
ag139
ag141
ag142
ag143
ag210
ag144
ag145
ag147
ag148
ag149
ag211
ag150
ag151
ag153
ag106
ag107
ag104
ag108
ag109
ag111
ag112
ag113
ag205
ag114
ag115
ag117
ag118
ag119
ag206
ag120
ag121
ag123
ag124
ag125
ag207
ag126
ag127
ag129
ag130
ag131
ag208
ag132
ag133
ag135
ag136
ag137
ag209
ag138
ag139
ag141
ag142
ag143
ag210
ag144
ag145
ag147
ag148
ag149
ag211
ag150
ag151
ag153
ag106
ag107
ag104
ag108
ag109
ag111
ag112
ag113
ag205
ag114
ag115
ag117
ag118
ag119
ag206
ag120
ag121
ag123
ag124
ag125
ag207
ag126
ag127
ag129
ag130
ag131
ag208
ag132
ag133
ag135
ag136
ag137
ag209
ag138
ag139
ag141
ag142
ag143
ag210
ag144
ag145
ag147
ag148
ag149
ag211
ag150
ag151
ag153
ag106
ag107
ag104
ag108
ag109
ag111
ag112
ag113
ag205
ag114
ag115
ag117
ag118
ag119
ag206
ag120
ag121
ag123
ag124
ag125
ag207
ag126
ag127
ag129
ag130
ag131
ag208
ag132
ag133
ag135
ag136
ag137
ag209
ag138
ag139
ag141
ag142
ag143
ag210
ag144
ag145
ag147
ag148
ag149
ag211
ag150
ag151
ag153
ag106
ag107
ag104
ag108
ag109
ag111
ag112
ag113
ag205
ag114
ag115
ag117
ag118
ag119
ag206
ag120
ag121
ag123
ag124
ag125
ag207
ag126
ag127
ag129
ag130
ag131
ag208
ag132
ag133
ag135
ag136
ag137
ag209
ag138
ag139
ag141
ag142
ag143
ag210
ag144
ag145
ag147
ag148
ag149
ag211
ag150
ag151
ag153
ag106
ag107
ag104
ag108
ag109
ag111
ag112
ag113
ag205
ag114
ag115
ag117
ag118
ag119
ag206
ag120
ag121
ag123
ag124
ag125
ag207
ag126
ag127
ag129
ag130
ag131
ag208
ag132
ag133
ag135
ag136
ag137
ag209
ag138
ag139
ag141
ag142
ag143
ag210
ag144
ag145
ag147
ag148
ag149
ag211
ag150
ag151
ag153
asg159
(lp212
g154
ag156
ag157
ag158
ag160
ag161
aVc910f55e-77df-11e2-83c4-00163e005319
p213
ag162
ag163
ag164
ag166
ag167
aVc910f55e-77df-11e2-83c4-00163e005319
p214
ag168
ag169
ag170
ag172
ag173
aVc910f55e-77df-11e2-83c4-00163e005319
p215
ag174
ag175
ag176
ag178
ag179
aVc910f55e-77df-11e2-83c4-00163e005319
p216
ag180
ag181
ag182
ag184
ag185
aVc910f55e-77df-11e2-83c4-00163e005319
p217
ag186
ag187
ag188
ag190
ag191
aVc910f55e-77df-11e2-83c4-00163e005319
p218
ag192
ag193
ag194
ag196
ag197
aVc910f55e-77df-11e2-83c4-00163e005319
p219
ag198
ag199
ag200
ag202
ag203
ag154
ag156
ag157
ag158
ag160
ag161
ag213
ag162
ag163
ag164
ag166
ag167
ag214
ag168
ag169
ag170
ag172
ag173
ag215
ag174
ag175
ag176
ag178
ag179
ag216
ag180
ag181
ag182
ag184
ag185
ag217
ag186
ag187
ag188
ag190
ag191
ag218
ag192
ag193
ag194
ag196
ag197
ag219
ag198
ag199
ag200
ag202
ag203
ag154
ag156
ag157
ag158
ag160
ag161
ag213
ag162
ag163
ag164
ag166
ag167
ag214
ag168
ag169
ag170
ag172
ag173
ag215
ag174
ag175
ag176
ag178
ag179
ag216
ag180
ag181
ag182
ag184
ag185
ag217
ag186
ag187
ag188
ag190
ag191
ag218
ag192
ag193
ag194
ag196
ag197
ag219
ag198
ag199
ag200
ag202
ag203
ag154
ag156
ag157
ag158
ag160
ag161
ag213
ag162
ag163
ag164
ag166
ag167
ag214
ag168
ag169
ag170
ag172
ag173
ag215
ag174
ag175
ag176
ag178
ag179
ag216
ag180
ag181
ag182
ag184
ag185
ag217
ag186
ag187
ag188
ag190
ag191
ag218
ag192
ag193
ag194
ag196
ag197
ag219
ag198
ag199
ag200
ag202
ag203
ag154
ag156
ag157
ag158
ag160
ag161
ag213
ag162
ag163
ag164
ag166
ag167
ag214
ag168
ag169
ag170
ag172
ag173
ag215
ag174
ag175
ag176
ag178
ag179
ag216
ag180
ag181
ag182
ag184
ag185
ag217
ag186
ag187
ag188
ag190
ag191
ag218
ag192
ag193
ag194
ag196
ag197
ag219
ag198
ag199
ag200
ag202
ag203
ag154
ag156
ag157
ag158
ag160
ag161
ag213
ag162
ag163
ag164
ag166
ag167
ag214
ag168
ag169
ag170
ag172
ag173
ag215
ag174
ag175
ag176
ag178
ag179
ag216
ag180
ag181
ag182
ag184
ag185
ag217
ag186
ag187
ag188
ag190
ag191
ag218
ag192
ag193
ag194
ag196
ag197
ag219
ag198
ag199
ag200
ag202
ag203
ag154
ag156
ag157
ag158
ag160
ag161
ag213
ag162
ag163
ag164
ag166
ag167
ag214
ag168
ag169
ag170
ag172
ag173
ag215
ag174
ag175
ag176
ag178
ag179
ag216
ag180
ag181
ag182
ag184
ag185
ag217
ag186
ag187
ag188
ag190
ag191
ag218
ag192
ag193
ag194
ag196
ag197
ag219
ag198
ag199
ag200
ag202
ag203
ag154
ag156
ag157
ag158
ag160
ag161
ag213
ag162
ag163
ag164
ag166
ag167
ag214
ag168
ag169
ag170
ag172
ag173
ag215
ag174
ag175
ag176
ag178
ag179
ag216
ag180
ag181
ag182
ag184
ag185
ag217
ag186
ag187
ag188
ag190
ag191
ag218
ag192
ag193
ag194
ag196
ag197
ag219
ag198
ag199
ag200
ag202
ag203
asg108
(lp220
g106
ag107
ag104
ag109
ag110
ag111
ag112
ag113
ag205
ag115
ag116
ag117
ag118
ag119
ag206
ag121
ag122
ag123
ag124
ag125
ag207
ag127
ag128
ag129
ag130
ag131
ag208
ag133
ag134
ag135
ag136
ag137
ag209
ag139
ag140
ag141
ag142
ag143
ag210
ag145
ag146
ag147
ag148
ag149
ag211
ag151
ag152
ag153
ag106
ag107
ag104
ag109
ag110
ag111
ag112
ag113
ag205
ag115
ag116
ag117
ag118
ag119
ag206
ag121
ag122
ag123
ag124
ag125
ag207
ag127
ag128
ag129
ag130
ag131
ag208
ag133
ag134
ag135
ag136
ag137
ag209
ag139
ag140
ag141
ag142
ag143
ag210
ag145
ag146
ag147
ag148
ag149
ag211
ag151
ag152
ag153
ag106
ag107
ag104
ag109
ag110
ag111
ag112
ag113
ag205
ag115
ag116
ag117
ag118
ag119
ag206
ag121
ag122
ag123
ag124
ag125
ag207
ag127
ag128
ag129
ag130
ag131
ag208
ag133
ag134
ag135
ag136
ag137
ag209
ag139
ag140
ag141
ag142
ag143
ag210
ag145
ag146
ag147
ag148
ag149
ag211
ag151
ag152
ag153
ag106
ag107
ag104
ag109
ag110
ag111
ag112
ag113
ag205
ag115
ag116
ag117
ag118
ag119
ag206
ag121
ag122
ag123
ag124
ag125
ag207
ag127
ag128
ag129
ag130
ag131
ag208
ag133
ag134
ag135
ag136
ag137
ag209
ag139
ag140
ag141
ag142
ag143
ag210
ag145
ag146
ag147
ag148
ag149
ag211
ag151
ag152
ag153
ag106
ag107
ag104
ag109
ag110
ag111
ag112
ag113
ag205
ag115
ag116
ag117
ag118
ag119
ag206
ag121
ag122
ag123
ag124
ag125
ag207
ag127
ag128
ag129
ag130
ag131
ag208
ag133
ag134
ag135
ag136
ag137
ag209
ag139
ag140
ag141
ag142
ag143
ag210
ag145
ag146
ag147
ag148
ag149
ag211
ag151
ag152
ag153
ag106
ag107
ag104
ag109
ag110
ag111
ag112
ag113
ag205
ag115
ag116
ag117
ag118
ag119
ag206
ag121
ag122
ag123
ag124
ag125
ag207
ag127
ag128
ag129
ag130
ag131
ag208
ag133
ag134
ag135
ag136
ag137
ag209
ag139
ag140
ag141
ag142
ag143
ag210
ag145
ag146
ag147
ag148
ag149
ag211
ag151
ag152
ag153
ag106
ag107
ag104
ag109
ag110
ag111
ag112
ag113
ag205
ag115
ag116
ag117
ag118
ag119
ag206
ag121
ag122
ag123
ag124
ag125
ag207
ag127
ag128
ag129
ag130
ag131
ag208
ag133
ag134
ag135
ag136
ag137
ag209
ag139
ag140
ag141
ag142
ag143
ag210
ag145
ag146
ag147
ag148
ag149
ag211
ag151
ag152
ag153
ag106
ag107
ag104
ag109
ag110
ag111
ag112
ag113
ag205
ag115
ag116
ag117
ag118
ag119
ag206
ag121
ag122
ag123
ag124
ag125
ag207
ag127
ag128
ag129
ag130
ag131
ag208
ag133
ag134
ag135
ag136
ag137
ag209
ag139
ag140
ag141
ag142
ag143
ag210
ag145
ag146
ag147
ag148
ag149
ag211
ag151
ag152
ag153
asV2da913cc-f3d5-11e2-831d-00163e005319
p221
(lp222
Vac260138-74c8-11e2-a42d-00163e005319
p223
aV0d44dc28-74c9-11e2-a42d-00163e005319
p224
aVad54e524-74c8-11e2-a42d-00163e005319
p225
aVac5b3254-74c8-11e2-b454-00163e005319
p226
aVac92e640-74c8-11e2-a42d-00163e005319
p227
aVacf25576-74c8-11e2-a42d-00163e005319
p228
aVac260138-74c8-11e2-a42d-00163e005319
p229
aV0d44dc28-74c9-11e2-a42d-00163e005319
p230
aVad54e524-74c8-11e2-a42d-00163e005319
p231
aVac5b3254-74c8-11e2-b454-00163e005319
p232
aVac92e640-74c8-11e2-a42d-00163e005319
p233
aVacf25576-74c8-11e2-a42d-00163e005319
p234
aVac260138-74c8-11e2-a42d-00163e005319
p235
aV0d44dc28-74c9-11e2-a42d-00163e005319
p236
aVad54e524-74c8-11e2-a42d-00163e005319
p237
aVac5b3254-74c8-11e2-b454-00163e005319
p238
aVac92e640-74c8-11e2-a42d-00163e005319
p239
aVacf25576-74c8-11e2-a42d-00163e005319
p240
aVac260138-74c8-11e2-a42d-00163e005319
p241
aV0d44dc28-74c9-11e2-a42d-00163e005319
p242
aVad54e524-74c8-11e2-a42d-00163e005319
p243
aVac5b3254-74c8-11e2-b454-00163e005319
p244
aVac92e640-74c8-11e2-a42d-00163e005319
p245
aVacf25576-74c8-11e2-a42d-00163e005319
p246
aVac260138-74c8-11e2-a42d-00163e005319
p247
aV0d44dc28-74c9-11e2-a42d-00163e005319
p248
aVad54e524-74c8-11e2-a42d-00163e005319
p249
aVac5b3254-74c8-11e2-b454-00163e005319
p250
aVac92e640-74c8-11e2-a42d-00163e005319
p251
aVacf25576-74c8-11e2-a42d-00163e005319
p252
aVac260138-74c8-11e2-a42d-00163e005319
p253
aV0d44dc28-74c9-11e2-a42d-00163e005319
p254
aVad54e524-74c8-11e2-a42d-00163e005319
p255
aVac5b3254-74c8-11e2-b454-00163e005319
p256
aVac92e640-74c8-11e2-a42d-00163e005319
p257
aVacf25576-74c8-11e2-a42d-00163e005319
p258
aVac260138-74c8-11e2-a42d-00163e005319
p259
aV0d44dc28-74c9-11e2-a42d-00163e005319
p260
aVad54e524-74c8-11e2-a42d-00163e005319
p261
aVac5b3254-74c8-11e2-b454-00163e005319
p262
aVac92e640-74c8-11e2-a42d-00163e005319
p263
aVacf25576-74c8-11e2-a42d-00163e005319
p264
aVac260138-74c8-11e2-a42d-00163e005319
p265
aV0d44dc28-74c9-11e2-a42d-00163e005319
p266
aVad54e524-74c8-11e2-a42d-00163e005319
p267
aVac5b3254-74c8-11e2-b454-00163e005319
p268
aVac92e640-74c8-11e2-a42d-00163e005319
p269
aVacf25576-74c8-11e2-a42d-00163e005319
p270
ag223
ag224
ag225
ag226
ag227
ag228
ag229
ag230
ag231
ag232
ag233
ag234
ag235
ag236
ag237
ag238
ag239
ag240
ag241
ag242
ag243
ag244
ag245
ag246
ag247
ag248
ag249
ag250
ag251
ag252
ag253
ag254
ag255
ag256
ag257
ag258
ag259
ag260
ag261
ag262
ag263
ag264
ag265
ag266
ag267
ag268
ag269
ag270
ag223
ag224
ag225
ag226
ag227
ag228
ag229
ag230
ag231
ag232
ag233
ag234
ag235
ag236
ag237
ag238
ag239
ag240
ag241
ag242
ag243
ag244
ag245
ag246
ag247
ag248
ag249
ag250
ag251
ag252
ag253
ag254
ag255
ag256
ag257
ag258
ag259
ag260
ag261
ag262
ag263
ag264
ag265
ag266
ag267
ag268
ag269
ag270
ag223
ag224
ag225
ag226
ag227
ag228
ag229
ag230
ag231
ag232
ag233
ag234
ag235
ag236
ag237
ag238
ag239
ag240
ag241
ag242
ag243
ag244
ag245
ag246
ag247
ag248
ag249
ag250
ag251
ag252
ag253
ag254
ag255
ag256
ag257
ag258
ag259
ag260
ag261
ag262
ag263
ag264
ag265
ag266
ag267
ag268
ag269
ag270
ag223
ag224
ag225
ag226
ag227
ag228
ag229
ag230
ag231
ag232
ag233
ag234
ag235
ag236
ag237
ag238
ag239
ag240
ag241
ag242
ag243
ag244
ag245
ag246
ag247
ag248
ag249
ag250
ag251
ag252
ag253
ag254
ag255
ag256
ag257
ag258
ag259
ag260
ag261
ag262
ag263
ag264
ag265
ag266
ag267
ag268
ag269
ag270
ag223
ag224
ag225
ag226
ag227
ag228
ag229
ag230
ag231
ag232
ag233
ag234
ag235
ag236
ag237
ag238
ag239
ag240
ag241
ag242
ag243
ag244
ag245
ag246
ag247
ag248
ag249
ag250
ag251
ag252
ag253
ag254
ag255
ag256
ag257
ag258
ag259
ag260
ag261
ag262
ag263
ag264
ag265
ag266
ag267
ag268
ag269
ag270
ag223
ag224
ag225
ag226
ag227
ag228
ag229
ag230
ag231
ag232
ag233
ag234
ag235
ag236
ag237
ag238
ag239
ag240
ag241
ag242
ag243
ag244
ag245
ag246
ag247
ag248
ag249
ag250
ag251
ag252
ag253
ag254
ag255
ag256
ag257
ag258
ag259
ag260
ag261
ag262
ag263
ag264
ag265
ag266
ag267
ag268
ag269
ag270
ag223
ag224
ag225
ag226
ag227
ag228
ag229
ag230
ag231
ag232
ag233
ag234
ag235
ag236
ag237
ag238
ag239
ag240
ag241
ag242
ag243
ag244
ag245
ag246
ag247
ag248
ag249
ag250
ag251
ag252
ag253
ag254
ag255
ag256
ag257
ag258
ag259
ag260
ag261
ag262
ag263
ag264
ag265
ag266
ag267
ag268
ag269
ag270
asg157
(lp271
g154
ag156
ag158
ag159
ag160
ag161
ag213
ag162
ag164
ag165
ag166
ag167
ag214
ag168
ag170
ag171
ag172
ag173
ag215
ag174
ag176
ag177
ag178
ag179
ag216
ag180
ag182
ag183
ag184
ag185
ag217
ag186
ag188
ag189
ag190
ag191
ag218
ag192
ag194
ag195
ag196
ag197
ag219
ag198
ag200
ag201
ag202
ag203
ag154
ag156
ag158
ag159
ag160
ag161
ag213
ag162
ag164
ag165
ag166
ag167
ag214
ag168
ag170
ag171
ag172
ag173
ag215
ag174
ag176
ag177
ag178
ag179
ag216
ag180
ag182
ag183
ag184
ag185
ag217
ag186
ag188
ag189
ag190
ag191
ag218
ag192
ag194
ag195
ag196
ag197
ag219
ag198
ag200
ag201
ag202
ag203
ag154
ag156
ag158
ag159
ag160
ag161
ag213
ag162
ag164
ag165
ag166
ag167
ag214
ag168
ag170
ag171
ag172
ag173
ag215
ag174
ag176
ag177
ag178
ag179
ag216
ag180
ag182
ag183
ag184
ag185
ag217
ag186
ag188
ag189
ag190
ag191
ag218
ag192
ag194
ag195
ag196
ag197
ag219
ag198
ag200
ag201
ag202
ag203
ag154
ag156
ag158
ag159
ag160
ag161
ag213
ag162
ag164
ag165
ag166
ag167
ag214
ag168
ag170
ag171
ag172
ag173
ag215
ag174
ag176
ag177
ag178
ag179
ag216
ag180
ag182
ag183
ag184
ag185
ag217
ag186
ag188
ag189
ag190
ag191
ag218
ag192
ag194
ag195
ag196
ag197
ag219
ag198
ag200
ag201
ag202
ag203
ag154
ag156
ag158
ag159
ag160
ag161
ag213
ag162
ag164
ag165
ag166
ag167
ag214
ag168
ag170
ag171
ag172
ag173
ag215
ag174
ag176
ag177
ag178
ag179
ag216
ag180
ag182
ag183
ag184
ag185
ag217
ag186
ag188
ag189
ag190
ag191
ag218
ag192
ag194
ag195
ag196
ag197
ag219
ag198
ag200
ag201
ag202
ag203
ag154
ag156
ag158
ag159
ag160
ag161
ag213
ag162
ag164
ag165
ag166
ag167
ag214
ag168
ag170
ag171
ag172
ag173
ag215
ag174
ag176
ag177
ag178
ag179
ag216
ag180
ag182
ag183
ag184
ag185
ag217
ag186
ag188
ag189
ag190
ag191
ag218
ag192
ag194
ag195
ag196
ag197
ag219
ag198
ag200
ag201
ag202
ag203
ag154
ag156
ag158
ag159
ag160
ag161
ag213
ag162
ag164
ag165
ag166
ag167
ag214
ag168
ag170
ag171
ag172
ag173
ag215
ag174
ag176
ag177
ag178
ag179
ag216
ag180
ag182
ag183
ag184
ag185
ag217
ag186
ag188
ag189
ag190
ag191
ag218
ag192
ag194
ag195
ag196
ag197
ag219
ag198
ag200
ag201
ag202
ag203
ag154
ag156
ag158
ag159
ag160
ag161
ag213
ag162
ag164
ag165
ag166
ag167
ag214
ag168
ag170
ag171
ag172
ag173
ag215
ag174
ag176
ag177
ag178
ag179
ag216
ag180
ag182
ag183
ag184
ag185
ag217
ag186
ag188
ag189
ag190
ag191
ag218
ag192
ag194
ag195
ag196
ag197
ag219
ag198
ag200
ag201
ag202
ag203
asg156
(lp272
g154
ag157
ag158
ag159
ag160
ag161
ag213
ag163
ag164
ag165
ag166
ag167
ag214
ag169
ag170
ag171
ag172
ag173
ag215
ag175
ag176
ag177
ag178
ag179
ag216
ag181
ag182
ag183
ag184
ag185
ag217
ag187
ag188
ag189
ag190
ag191
ag218
ag193
ag194
ag195
ag196
ag197
ag219
ag199
ag200
ag201
ag202
ag203
ag154
ag157
ag158
ag159
ag160
ag161
ag213
ag163
ag164
ag165
ag166
ag167
ag214
ag169
ag170
ag171
ag172
ag173
ag215
ag175
ag176
ag177
ag178
ag179
ag216
ag181
ag182
ag183
ag184
ag185
ag217
ag187
ag188
ag189
ag190
ag191
ag218
ag193
ag194
ag195
ag196
ag197
ag219
ag199
ag200
ag201
ag202
ag203
ag154
ag157
ag158
ag159
ag160
ag161
ag213
ag163
ag164
ag165
ag166
ag167
ag214
ag169
ag170
ag171
ag172
ag173
ag215
ag175
ag176
ag177
ag178
ag179
ag216
ag181
ag182
ag183
ag184
ag185
ag217
ag187
ag188
ag189
ag190
ag191
ag218
ag193
ag194
ag195
ag196
ag197
ag219
ag199
ag200
ag201
ag202
ag203
ag154
ag157
ag158
ag159
ag160
ag161
ag213
ag163
ag164
ag165
ag166
ag167
ag214
ag169
ag170
ag171
ag172
ag173
ag215
ag175
ag176
ag177
ag178
ag179
ag216
ag181
ag182
ag183
ag184
ag185
ag217
ag187
ag188
ag189
ag190
ag191
ag218
ag193
ag194
ag195
ag196
ag197
ag219
ag199
ag200
ag201
ag202
ag203
ag154
ag157
ag158
ag159
ag160
ag161
ag213
ag163
ag164
ag165
ag166
ag167
ag214
ag169
ag170
ag171
ag172
ag173
ag215
ag175
ag176
ag177
ag178
ag179
ag216
ag181
ag182
ag183
ag184
ag185
ag217
ag187
ag188
ag189
ag190
ag191
ag218
ag193
ag194
ag195
ag196
ag197
ag219
ag199
ag200
ag201
ag202
ag203
ag154
ag157
ag158
ag159
ag160
ag161
ag213
ag163
ag164
ag165
ag166
ag167
ag214
ag169
ag170
ag171
ag172
ag173
ag215
ag175
ag176
ag177
ag178
ag179
ag216
ag181
ag182
ag183
ag184
ag185
ag217
ag187
ag188
ag189
ag190
ag191
ag218
ag193
ag194
ag195
ag196
ag197
ag219
ag199
ag200
ag201
ag202
ag203
ag154
ag157
ag158
ag159
ag160
ag161
ag213
ag163
ag164
ag165
ag166
ag167
ag214
ag169
ag170
ag171
ag172
ag173
ag215
ag175
ag176
ag177
ag178
ag179
ag216
ag181
ag182
ag183
ag184
ag185
ag217
ag187
ag188
ag189
ag190
ag191
ag218
ag193
ag194
ag195
ag196
ag197
ag219
ag199
ag200
ag201
ag202
ag203
ag154
ag157
ag158
ag159
ag160
ag161
ag213
ag163
ag164
ag165
ag166
ag167
ag214
ag169
ag170
ag171
ag172
ag173
ag215
ag175
ag176
ag177
ag178
ag179
ag216
ag181
ag182
ag183
ag184
ag185
ag217
ag187
ag188
ag189
ag190
ag191
ag218
ag193
ag194
ag195
ag196
ag197
ag219
ag199
ag200
ag201
ag202
ag203
asV99061afc-74c8-11e2-a42d-00163e005319
p273
(lp274
V0b11475c-74c9-11e2-b454-00163e005319
p275
aV9a4c33ec-74c8-11e2-a42d-00163e005319
p276
aV2d7b3c90-f3d5-11e2-85c2-00163e005319
p277
aV99396038-74c8-11e2-b454-00163e005319
p278
aV996c6d16-74c8-11e2-a42d-00163e005319
p279
aV99e00b40-74c8-11e2-a42d-00163e005319
p280
aV0b11475c-74c9-11e2-b454-00163e005319
p281
aV9a4c33ec-74c8-11e2-a42d-00163e005319
p282
aV2d7b3c90-f3d5-11e2-85c2-00163e005319
p283
aV99396038-74c8-11e2-b454-00163e005319
p284
aV996c6d16-74c8-11e2-a42d-00163e005319
p285
aV99e00b40-74c8-11e2-a42d-00163e005319
p286
aV0b11475c-74c9-11e2-b454-00163e005319
p287
aV9a4c33ec-74c8-11e2-a42d-00163e005319
p288
aV2d7b3c90-f3d5-11e2-85c2-00163e005319
p289
aV99396038-74c8-11e2-b454-00163e005319
p290
aV996c6d16-74c8-11e2-a42d-00163e005319
p291
aV99e00b40-74c8-11e2-a42d-00163e005319
p292
aV0b11475c-74c9-11e2-b454-00163e005319
p293
aV9a4c33ec-74c8-11e2-a42d-00163e005319
p294
aV2d7b3c90-f3d5-11e2-85c2-00163e005319
p295
aV99396038-74c8-11e2-b454-00163e005319
p296
aV996c6d16-74c8-11e2-a42d-00163e005319
p297
aV99e00b40-74c8-11e2-a42d-00163e005319
p298
aV0b11475c-74c9-11e2-b454-00163e005319
p299
aV9a4c33ec-74c8-11e2-a42d-00163e005319
p300
aV2d7b3c90-f3d5-11e2-85c2-00163e005319
p301
aV99396038-74c8-11e2-b454-00163e005319
p302
aV996c6d16-74c8-11e2-a42d-00163e005319
p303
aV99e00b40-74c8-11e2-a42d-00163e005319
p304
aV0b11475c-74c9-11e2-b454-00163e005319
p305
aV9a4c33ec-74c8-11e2-a42d-00163e005319
p306
aV2d7b3c90-f3d5-11e2-85c2-00163e005319
p307
aV99396038-74c8-11e2-b454-00163e005319
p308
aV996c6d16-74c8-11e2-a42d-00163e005319
p309
aV99e00b40-74c8-11e2-a42d-00163e005319
p310
aV0b11475c-74c9-11e2-b454-00163e005319
p311
aV9a4c33ec-74c8-11e2-a42d-00163e005319
p312
aV2d7b3c90-f3d5-11e2-85c2-00163e005319
p313
aV99396038-74c8-11e2-b454-00163e005319
p314
aV996c6d16-74c8-11e2-a42d-00163e005319
p315
aV99e00b40-74c8-11e2-a42d-00163e005319
p316
aV0b11475c-74c9-11e2-b454-00163e005319
p317
aV9a4c33ec-74c8-11e2-a42d-00163e005319
p318
aV2d7b3c90-f3d5-11e2-85c2-00163e005319
p319
aV99396038-74c8-11e2-b454-00163e005319
p320
aV996c6d16-74c8-11e2-a42d-00163e005319
p321
aV99e00b40-74c8-11e2-a42d-00163e005319
p322
ag275
ag276
ag277
ag278
ag279
ag280
ag281
ag282
ag283
ag284
ag285
ag286
ag287
ag288
ag289
ag290
ag291
ag292
ag293
ag294
ag295
ag296
ag297
ag298
ag299
ag300
ag301
ag302
ag303
ag304
ag305
ag306
ag307
ag308
ag309
ag310
ag311
ag312
ag313
ag314
ag315
ag316
ag317
ag318
ag319
ag320
ag321
ag322
ag275
ag276
ag277
ag278
ag279
ag280
ag281
ag282
ag283
ag284
ag285
ag286
ag287
ag288
ag289
ag290
ag291
ag292
ag293
ag294
ag295
ag296
ag297
ag298
ag299
ag300
ag301
ag302
ag303
ag304
ag305
ag306
ag307
ag308
ag309
ag310
ag311
ag312
ag313
ag314
ag315
ag316
ag317
ag318
ag319
ag320
ag321
ag322
ag275
ag276
ag277
ag278
ag279
ag280
ag281
ag282
ag283
ag284
ag285
ag286
ag287
ag288
ag289
ag290
ag291
ag292
ag293
ag294
ag295
ag296
ag297
ag298
ag299
ag300
ag301
ag302
ag303
ag304
ag305
ag306
ag307
ag308
ag309
ag310
ag311
ag312
ag313
ag314
ag315
ag316
ag317
ag318
ag319
ag320
ag321
ag322
ag275
ag276
ag277
ag278
ag279
ag280
ag281
ag282
ag283
ag284
ag285
ag286
ag287
ag288
ag289
ag290
ag291
ag292
ag293
ag294
ag295
ag296
ag297
ag298
ag299
ag300
ag301
ag302
ag303
ag304
ag305
ag306
ag307
ag308
ag309
ag310
ag311
ag312
ag313
ag314
ag315
ag316
ag317
ag318
ag319
ag320
ag321
ag322
ag275
ag276
ag277
ag278
ag279
ag280
ag281
ag282
ag283
ag284
ag285
ag286
ag287
ag288
ag289
ag290
ag291
ag292
ag293
ag294
ag295
ag296
ag297
ag298
ag299
ag300
ag301
ag302
ag303
ag304
ag305
ag306
ag307
ag308
ag309
ag310
ag311
ag312
ag313
ag314
ag315
ag316
ag317
ag318
ag319
ag320
ag321
ag322
ag275
ag276
ag277
ag278
ag279
ag280
ag281
ag282
ag283
ag284
ag285
ag286
ag287
ag288
ag289
ag290
ag291
ag292
ag293
ag294
ag295
ag296
ag297
ag298
ag299
ag300
ag301
ag302
ag303
ag304
ag305
ag306
ag307
ag308
ag309
ag310
ag311
ag312
ag313
ag314
ag315
ag316
ag317
ag318
ag319
ag320
ag321
ag322
ag275
ag276
ag277
ag278
ag279
ag280
ag281
ag282
ag283
ag284
ag285
ag286
ag287
ag288
ag289
ag290
ag291
ag292
ag293
ag294
ag295
ag296
ag297
ag298
ag299
ag300
ag301
ag302
ag303
ag304
ag305
ag306
ag307
ag308
ag309
ag310
ag311
ag312
ag313
ag314
ag315
ag316
ag317
ag318
ag319
ag320
ag321
ag322
asg111
(lp323
g106
ag107
ag104
ag108
ag109
ag110
ag112
ag113
ag205
ag114
ag115
ag116
ag118
ag119
ag206
ag120
ag121
ag122
ag124
ag125
ag207
ag126
ag127
ag128
ag130
ag131
ag208
ag132
ag133
ag134
ag136
ag137
ag209
ag138
ag139
ag140
ag142
ag143
ag210
ag144
ag145
ag146
ag148
ag149
ag211
ag150
ag151
ag152
ag106
ag107
ag104
ag108
ag109
ag110
ag112
ag113
ag205
ag114
ag115
ag116
ag118
ag119
ag206
ag120
ag121
ag122
ag124
ag125
ag207
ag126
ag127
ag128
ag130
ag131
ag208
ag132
ag133
ag134
ag136
ag137
ag209
ag138
ag139
ag140
ag142
ag143
ag210
ag144
ag145
ag146
ag148
ag149
ag211
ag150
ag151
ag152
ag106
ag107
ag104
ag108
ag109
ag110
ag112
ag113
ag205
ag114
ag115
ag116
ag118
ag119
ag206
ag120
ag121
ag122
ag124
ag125
ag207
ag126
ag127
ag128
ag130
ag131
ag208
ag132
ag133
ag134
ag136
ag137
ag209
ag138
ag139
ag140
ag142
ag143
ag210
ag144
ag145
ag146
ag148
ag149
ag211
ag150
ag151
ag152
ag106
ag107
ag104
ag108
ag109
ag110
ag112
ag113
ag205
ag114
ag115
ag116
ag118
ag119
ag206
ag120
ag121
ag122
ag124
ag125
ag207
ag126
ag127
ag128
ag130
ag131
ag208
ag132
ag133
ag134
ag136
ag137
ag209
ag138
ag139
ag140
ag142
ag143
ag210
ag144
ag145
ag146
ag148
ag149
ag211
ag150
ag151
ag152
ag106
ag107
ag104
ag108
ag109
ag110
ag112
ag113
ag205
ag114
ag115
ag116
ag118
ag119
ag206
ag120
ag121
ag122
ag124
ag125
ag207
ag126
ag127
ag128
ag130
ag131
ag208
ag132
ag133
ag134
ag136
ag137
ag209
ag138
ag139
ag140
ag142
ag143
ag210
ag144
ag145
ag146
ag148
ag149
ag211
ag150
ag151
ag152
ag106
ag107
ag104
ag108
ag109
ag110
ag112
ag113
ag205
ag114
ag115
ag116
ag118
ag119
ag206
ag120
ag121
ag122
ag124
ag125
ag207
ag126
ag127
ag128
ag130
ag131
ag208
ag132
ag133
ag134
ag136
ag137
ag209
ag138
ag139
ag140
ag142
ag143
ag210
ag144
ag145
ag146
ag148
ag149
ag211
ag150
ag151
ag152
ag106
ag107
ag104
ag108
ag109
ag110
ag112
ag113
ag205
ag114
ag115
ag116
ag118
ag119
ag206
ag120
ag121
ag122
ag124
ag125
ag207
ag126
ag127
ag128
ag130
ag131
ag208
ag132
ag133
ag134
ag136
ag137
ag209
ag138
ag139
ag140
ag142
ag143
ag210
ag144
ag145
ag146
ag148
ag149
ag211
ag150
ag151
ag152
ag106
ag107
ag104
ag108
ag109
ag110
ag112
ag113
ag205
ag114
ag115
ag116
ag118
ag119
ag206
ag120
ag121
ag122
ag124
ag125
ag207
ag126
ag127
ag128
ag130
ag131
ag208
ag132
ag133
ag134
ag136
ag137
ag209
ag138
ag139
ag140
ag142
ag143
ag210
ag144
ag145
ag146
ag148
ag149
ag211
ag150
ag151
ag152
asg223
(lp324
g224
ag225
ag221
ag226
ag227
ag228
ag230
ag231
aV2da913cc-f3d5-11e2-831d-00163e005319
p325
ag232
ag233
ag234
ag236
ag237
aV2da913cc-f3d5-11e2-831d-00163e005319
p326
ag238
ag239
ag240
ag242
ag243
aV2da913cc-f3d5-11e2-831d-00163e005319
p327
ag244
ag245
ag246
ag248
ag249
aV2da913cc-f3d5-11e2-831d-00163e005319
p328
ag250
ag251
ag252
ag254
ag255
aV2da913cc-f3d5-11e2-831d-00163e005319
p329
ag256
ag257
ag258
ag260
ag261
aV2da913cc-f3d5-11e2-831d-00163e005319
p330
ag262
ag263
ag264
ag266
ag267
aV2da913cc-f3d5-11e2-831d-00163e005319
p331
ag268
ag269
ag270
ag224
ag225
ag221
ag226
ag227
ag228
ag230
ag231
ag325
ag232
ag233
ag234
ag236
ag237
ag326
ag238
ag239
ag240
ag242
ag243
ag327
ag244
ag245
ag246
ag248
ag249
ag328
ag250
ag251
ag252
ag254
ag255
ag329
ag256
ag257
ag258
ag260
ag261
ag330
ag262
ag263
ag264
ag266
ag267
ag331
ag268
ag269
ag270
ag224
ag225
ag221
ag226
ag227
ag228
ag230
ag231
ag325
ag232
ag233
ag234
ag236
ag237
ag326
ag238
ag239
ag240
ag242
ag243
ag327
ag244
ag245
ag246
ag248
ag249
ag328
ag250
ag251
ag252
ag254
ag255
ag329
ag256
ag257
ag258
ag260
ag261
ag330
ag262
ag263
ag264
ag266
ag267
ag331
ag268
ag269
ag270
ag224
ag225
ag221
ag226
ag227
ag228
ag230
ag231
ag325
ag232
ag233
ag234
ag236
ag237
ag326
ag238
ag239
ag240
ag242
ag243
ag327
ag244
ag245
ag246
ag248
ag249
ag328
ag250
ag251
ag252
ag254
ag255
ag329
ag256
ag257
ag258
ag260
ag261
ag330
ag262
ag263
ag264
ag266
ag267
ag331
ag268
ag269
ag270
ag224
ag225
ag221
ag226
ag227
ag228
ag230
ag231
ag325
ag232
ag233
ag234
ag236
ag237
ag326
ag238
ag239
ag240
ag242
ag243
ag327
ag244
ag245
ag246
ag248
ag249
ag328
ag250
ag251
ag252
ag254
ag255
ag329
ag256
ag257
ag258
ag260
ag261
ag330
ag262
ag263
ag264
ag266
ag267
ag331
ag268
ag269
ag270
ag224
ag225
ag221
ag226
ag227
ag228
ag230
ag231
ag325
ag232
ag233
ag234
ag236
ag237
ag326
ag238
ag239
ag240
ag242
ag243
ag327
ag244
ag245
ag246
ag248
ag249
ag328
ag250
ag251
ag252
ag254
ag255
ag329
ag256
ag257
ag258
ag260
ag261
ag330
ag262
ag263
ag264
ag266
ag267
ag331
ag268
ag269
ag270
ag224
ag225
ag221
ag226
ag227
ag228
ag230
ag231
ag325
ag232
ag233
ag234
ag236
ag237
ag326
ag238
ag239
ag240
ag242
ag243
ag327
ag244
ag245
ag246
ag248
ag249
ag328
ag250
ag251
ag252
ag254
ag255
ag329
ag256
ag257
ag258
ag260
ag261
ag330
ag262
ag263
ag264
ag266
ag267
ag331
ag268
ag269
ag270
ag224
ag225
ag221
ag226
ag227
ag228
ag230
ag231
ag325
ag232
ag233
ag234
ag236
ag237
ag326
ag238
ag239
ag240
ag242
ag243
ag327
ag244
ag245
ag246
ag248
ag249
ag328
ag250
ag251
ag252
ag254
ag255
ag329
ag256
ag257
ag258
ag260
ag261
ag330
ag262
ag263
ag264
ag266
ag267
ag331
ag268
ag269
ag270
asg11
(lp332
g6
ag7
ag8
ag9
ag10
ag4
ag12
ag13
ag14
ag15
ag16
aV3d2448c4-77e0-11e2-bad4-00163e005319
p333
ag18
ag19
ag20
ag21
ag22
aV3d2448c4-77e0-11e2-bad4-00163e005319
p334
ag24
ag25
ag26
ag27
ag28
aV3d2448c4-77e0-11e2-bad4-00163e005319
p335
ag30
ag31
ag32
ag33
ag34
aV3d2448c4-77e0-11e2-bad4-00163e005319
p336
ag36
ag37
ag38
ag39
ag40
aV3d2448c4-77e0-11e2-bad4-00163e005319
p337
ag42
ag43
ag44
ag45
ag46
aV3d2448c4-77e0-11e2-bad4-00163e005319
p338
ag48
ag49
ag50
ag51
ag52
aV3d2448c4-77e0-11e2-bad4-00163e005319
p339
ag6
ag7
ag8
ag9
ag10
ag4
ag12
ag13
ag14
ag15
ag16
ag333
ag18
ag19
ag20
ag21
ag22
ag334
ag24
ag25
ag26
ag27
ag28
ag335
ag30
ag31
ag32
ag33
ag34
ag336
ag36
ag37
ag38
ag39
ag40
ag337
ag42
ag43
ag44
ag45
ag46
ag338
ag48
ag49
ag50
ag51
ag52
ag339
ag6
ag7
ag8
ag9
ag10
ag4
ag12
ag13
ag14
ag15
ag16
ag333
ag18
ag19
ag20
ag21
ag22
ag334
ag24
ag25
ag26
ag27
ag28
ag335
ag30
ag31
ag32
ag33
ag34
ag336
ag36
ag37
ag38
ag39
ag40
ag337
ag42
ag43
ag44
ag45
ag46
ag338
ag48
ag49
ag50
ag51
ag52
ag339
ag6
ag7
ag8
ag9
ag10
ag4
ag12
ag13
ag14
ag15
ag16
ag333
ag18
ag19
ag20
ag21
ag22
ag334
ag24
ag25
ag26
ag27
ag28
ag335
ag30
ag31
ag32
ag33
ag34
ag336
ag36
ag37
ag38
ag39
ag40
ag337
ag42
ag43
ag44
ag45
ag46
ag338
ag48
ag49
ag50
ag51
ag52
ag339
ag6
ag7
ag8
ag9
ag10
ag4
ag12
ag13
ag14
ag15
ag16
ag333
ag18
ag19
ag20
ag21
ag22
ag334
ag24
ag25
ag26
ag27
ag28
ag335
ag30
ag31
ag32
ag33
ag34
ag336
ag36
ag37
ag38
ag39
ag40
ag337
ag42
ag43
ag44
ag45
ag46
ag338
ag48
ag49
ag50
ag51
ag52
ag339
ag6
ag7
ag8
ag9
ag10
ag4
ag12
ag13
ag14
ag15
ag16
ag333
ag18
ag19
ag20
ag21
ag22
ag334
ag24
ag25
ag26
ag27
ag28
ag335
ag30
ag31
ag32
ag33
ag34
ag336
ag36
ag37
ag38
ag39
ag40
ag337
ag42
ag43
ag44
ag45
ag46
ag338
ag48
ag49
ag50
ag51
ag52
ag339
ag6
ag7
ag8
ag9
ag10
ag4
ag12
ag13
ag14
ag15
ag16
ag333
ag18
ag19
ag20
ag21
ag22
ag334
ag24
ag25
ag26
ag27
ag28
ag335
ag30
ag31
ag32
ag33
ag34
ag336
ag36
ag37
ag38
ag39
ag40
ag337
ag42
ag43
ag44
ag45
ag46
ag338
ag48
ag49
ag50
ag51
ag52
ag339
ag6
ag7
ag8
ag9
ag10
ag4
ag12
ag13
ag14
ag15
ag16
ag333
ag18
ag19
ag20
ag21
ag22
ag334
ag24
ag25
ag26
ag27
ag28
ag335
ag30
ag31
ag32
ag33
ag34
ag336
ag36
ag37
ag38
ag39
ag40
ag337
ag42
ag43
ag44
ag45
ag46
ag338
ag48
ag49
ag50
ag51
ag52
ag339
asg8
(lp340
g6
ag7
ag9
ag10
ag11
ag4
ag12
ag13
ag15
ag16
ag17
ag333
ag18
ag19
ag21
ag22
ag23
ag334
ag24
ag25
ag27
ag28
ag29
ag335
ag30
ag31
ag33
ag34
ag35
ag336
ag36
ag37
ag39
ag40
ag41
ag337
ag42
ag43
ag45
ag46
ag47
ag338
ag48
ag49
ag51
ag52
ag53
ag339
ag6
ag7
ag9
ag10
ag11
ag4
ag12
ag13
ag15
ag16
ag17
ag333
ag18
ag19
ag21
ag22
ag23
ag334
ag24
ag25
ag27
ag28
ag29
ag335
ag30
ag31
ag33
ag34
ag35
ag336
ag36
ag37
ag39
ag40
ag41
ag337
ag42
ag43
ag45
ag46
ag47
ag338
ag48
ag49
ag51
ag52
ag53
ag339
ag6
ag7
ag9
ag10
ag11
ag4
ag12
ag13
ag15
ag16
ag17
ag333
ag18
ag19
ag21
ag22
ag23
ag334
ag24
ag25
ag27
ag28
ag29
ag335
ag30
ag31
ag33
ag34
ag35
ag336
ag36
ag37
ag39
ag40
ag41
ag337
ag42
ag43
ag45
ag46
ag47
ag338
ag48
ag49
ag51
ag52
ag53
ag339
ag6
ag7
ag9
ag10
ag11
ag4
ag12
ag13
ag15
ag16
ag17
ag333
ag18
ag19
ag21
ag22
ag23
ag334
ag24
ag25
ag27
ag28
ag29
ag335
ag30
ag31
ag33
ag34
ag35
ag336
ag36
ag37
ag39
ag40
ag41
ag337
ag42
ag43
ag45
ag46
ag47
ag338
ag48
ag49
ag51
ag52
ag53
ag339
ag6
ag7
ag9
ag10
ag11
ag4
ag12
ag13
ag15
ag16
ag17
ag333
ag18
ag19
ag21
ag22
ag23
ag334
ag24
ag25
ag27
ag28
ag29
ag335
ag30
ag31
ag33
ag34
ag35
ag336
ag36
ag37
ag39
ag40
ag41
ag337
ag42
ag43
ag45
ag46
ag47
ag338
ag48
ag49
ag51
ag52
ag53
ag339
ag6
ag7
ag9
ag10
ag11
ag4
ag12
ag13
ag15
ag16
ag17
ag333
ag18
ag19
ag21
ag22
ag23
ag334
ag24
ag25
ag27
ag28
ag29
ag335
ag30
ag31
ag33
ag34
ag35
ag336
ag36
ag37
ag39
ag40
ag41
ag337
ag42
ag43
ag45
ag46
ag47
ag338
ag48
ag49
ag51
ag52
ag53
ag339
ag6
ag7
ag9
ag10
ag11
ag4
ag12
ag13
ag15
ag16
ag17
ag333
ag18
ag19
ag21
ag22
ag23
ag334
ag24
ag25
ag27
ag28
ag29
ag335
ag30
ag31
ag33
ag34
ag35
ag336
ag36
ag37
ag39
ag40
ag41
ag337
ag42
ag43
ag45
ag46
ag47
ag338
ag48
ag49
ag51
ag52
ag53
ag339
ag6
ag7
ag9
ag10
ag11
ag4
ag12
ag13
ag15
ag16
ag17
ag333
ag18
ag19
ag21
ag22
ag23
ag334
ag24
ag25
ag27
ag28
ag29
ag335
ag30
ag31
ag33
ag34
ag35
ag336
ag36
ag37
ag39
ag40
ag41
ag337
ag42
ag43
ag45
ag46
ag47
ag338
ag48
ag49
ag51
ag52
ag53
ag339
asV19d45134-77e0-11e2-83c4-00163e005319
p341
(lp342
V196576ce-77e0-11e2-83c4-00163e005319
p343
aV85ce7ee6-77e0-11e2-bad4-00163e005319
p344
aV1b1c8872-77e0-11e2-83c4-00163e005319
p345
aV1b4b04d6-77e0-11e2-bad4-00163e005319
p346
aV1997c82c-77e0-11e2-bad4-00163e005319
p347
aV1a5ea4b0-77e0-11e2-83c4-00163e005319
p348
aV196576ce-77e0-11e2-83c4-00163e005319
p349
aV85ce7ee6-77e0-11e2-bad4-00163e005319
p350
aV1b1c8872-77e0-11e2-83c4-00163e005319
p351
aV1b4b04d6-77e0-11e2-bad4-00163e005319
p352
aV1997c82c-77e0-11e2-bad4-00163e005319
p353
aV1a5ea4b0-77e0-11e2-83c4-00163e005319
p354
aV196576ce-77e0-11e2-83c4-00163e005319
p355
aV85ce7ee6-77e0-11e2-bad4-00163e005319
p356
aV1b1c8872-77e0-11e2-83c4-00163e005319
p357
aV1b4b04d6-77e0-11e2-bad4-00163e005319
p358
aV1997c82c-77e0-11e2-bad4-00163e005319
p359
aV1a5ea4b0-77e0-11e2-83c4-00163e005319
p360
aV196576ce-77e0-11e2-83c4-00163e005319
p361
aV85ce7ee6-77e0-11e2-bad4-00163e005319
p362
aV1b1c8872-77e0-11e2-83c4-00163e005319
p363
aV1b4b04d6-77e0-11e2-bad4-00163e005319
p364
aV1997c82c-77e0-11e2-bad4-00163e005319
p365
aV1a5ea4b0-77e0-11e2-83c4-00163e005319
p366
aV196576ce-77e0-11e2-83c4-00163e005319
p367
aV85ce7ee6-77e0-11e2-bad4-00163e005319
p368
aV1b1c8872-77e0-11e2-83c4-00163e005319
p369
aV1b4b04d6-77e0-11e2-bad4-00163e005319
p370
aV1997c82c-77e0-11e2-bad4-00163e005319
p371
aV1a5ea4b0-77e0-11e2-83c4-00163e005319
p372
aV196576ce-77e0-11e2-83c4-00163e005319
p373
aV85ce7ee6-77e0-11e2-bad4-00163e005319
p374
aV1b1c8872-77e0-11e2-83c4-00163e005319
p375
aV1b4b04d6-77e0-11e2-bad4-00163e005319
p376
aV1997c82c-77e0-11e2-bad4-00163e005319
p377
aV1a5ea4b0-77e0-11e2-83c4-00163e005319
p378
aV196576ce-77e0-11e2-83c4-00163e005319
p379
aV85ce7ee6-77e0-11e2-bad4-00163e005319
p380
aV1b1c8872-77e0-11e2-83c4-00163e005319
p381
aV1b4b04d6-77e0-11e2-bad4-00163e005319
p382
aV1997c82c-77e0-11e2-bad4-00163e005319
p383
aV1a5ea4b0-77e0-11e2-83c4-00163e005319
p384
aV196576ce-77e0-11e2-83c4-00163e005319
p385
aV85ce7ee6-77e0-11e2-bad4-00163e005319
p386
aV1b1c8872-77e0-11e2-83c4-00163e005319
p387
aV1b4b04d6-77e0-11e2-bad4-00163e005319
p388
aV1997c82c-77e0-11e2-bad4-00163e005319
p389
aV1a5ea4b0-77e0-11e2-83c4-00163e005319
p390
ag343
ag344
ag345
ag346
ag347
ag348
ag349
ag350
ag351
ag352
ag353
ag354
ag355
ag356
ag357
ag358
ag359
ag360
ag361
ag362
ag363
ag364
ag365
ag366
ag367
ag368
ag369
ag370
ag371
ag372
ag373
ag374
ag375
ag376
ag377
ag378
ag379
ag380
ag381
ag382
ag383
ag384
ag385
ag386
ag387
ag388
ag389
ag390
ag343
ag344
ag345
ag346
ag347
ag348
ag349
ag350
ag351
ag352
ag353
ag354
ag355
ag356
ag357
ag358
ag359
ag360
ag361
ag362
ag363
ag364
ag365
ag366
ag367
ag368
ag369
ag370
ag371
ag372
ag373
ag374
ag375
ag376
ag377
ag378
ag379
ag380
ag381
ag382
ag383
ag384
ag385
ag386
ag387
ag388
ag389
ag390
ag343
ag344
ag345
ag346
ag347
ag348
ag349
ag350
ag351
ag352
ag353
ag354
ag355
ag356
ag357
ag358
ag359
ag360
ag361
ag362
ag363
ag364
ag365
ag366
ag367
ag368
ag369
ag370
ag371
ag372
ag373
ag374
ag375
ag376
ag377
ag378
ag379
ag380
ag381
ag382
ag383
ag384
ag385
ag386
ag387
ag388
ag389
ag390
ag343
ag344
ag345
ag346
ag347
ag348
ag349
ag350
ag351
ag352
ag353
ag354
ag355
ag356
ag357
ag358
ag359
ag360
ag361
ag362
ag363
ag364
ag365
ag366
ag367
ag368
ag369
ag370
ag371
ag372
ag373
ag374
ag375
ag376
ag377
ag378
ag379
ag380
ag381
ag382
ag383
ag384
ag385
ag386
ag387
ag388
ag389
ag390
ag343
ag344
ag345
ag346
ag347
ag348
ag349
ag350
ag351
ag352
ag353
ag354
ag355
ag356
ag357
ag358
ag359
ag360
ag361
ag362
ag363
ag364
ag365
ag366
ag367
ag368
ag369
ag370
ag371
ag372
ag373
ag374
ag375
ag376
ag377
ag378
ag379
ag380
ag381
ag382
ag383
ag384
ag385
ag386
ag387
ag388
ag389
ag390
ag343
ag344
ag345
ag346
ag347
ag348
ag349
ag350
ag351
ag352
ag353
ag354
ag355
ag356
ag357
ag358
ag359
ag360
ag361
ag362
ag363
ag364
ag365
ag366
ag367
ag368
ag369
ag370
ag371
ag372
ag373
ag374
ag375
ag376
ag377
ag378
ag379
ag380
ag381
ag382
ag383
ag384
ag385
ag386
ag387
ag388
ag389
ag390
ag343
ag344
ag345
ag346
ag347
ag348
ag349
ag350
ag351
ag352
ag353
ag354
ag355
ag356
ag357
ag358
ag359
ag360
ag361
ag362
ag363
ag364
ag365
ag366
ag367
ag368
ag369
ag370
ag371
ag372
ag373
ag374
ag375
ag376
ag377
ag378
ag379
ag380
ag381
ag382
ag383
ag384
ag385
ag386
ag387
ag388
ag389
ag390
asg106
(lp391
g107
ag104
ag108
ag109
ag110
ag111
ag113
ag205
ag114
ag115
ag116
ag117
ag119
ag206
ag120
ag121
ag122
ag123
ag125
ag207
ag126
ag127
ag128
ag129
ag131
ag208
ag132
ag133
ag134
ag135
ag137
ag209
ag138
ag139
ag140
ag141
ag143
ag210
ag144
ag145
ag146
ag147
ag149
ag211
ag150
ag151
ag152
ag153
ag107
ag104
ag108
ag109
ag110
ag111
ag113
ag205
ag114
ag115
ag116
ag117
ag119
ag206
ag120
ag121
ag122
ag123
ag125
ag207
ag126
ag127
ag128
ag129
ag131
ag208
ag132
ag133
ag134
ag135
ag137
ag209
ag138
ag139
ag140
ag141
ag143
ag210
ag144
ag145
ag146
ag147
ag149
ag211
ag150
ag151
ag152
ag153
ag107
ag104
ag108
ag109
ag110
ag111
ag113
ag205
ag114
ag115
ag116
ag117
ag119
ag206
ag120
ag121
ag122
ag123
ag125
ag207
ag126
ag127
ag128
ag129
ag131
ag208
ag132
ag133
ag134
ag135
ag137
ag209
ag138
ag139
ag140
ag141
ag143
ag210
ag144
ag145
ag146
ag147
ag149
ag211
ag150
ag151
ag152
ag153
ag107
ag104
ag108
ag109
ag110
ag111
ag113
ag205
ag114
ag115
ag116
ag117
ag119
ag206
ag120
ag121
ag122
ag123
ag125
ag207
ag126
ag127
ag128
ag129
ag131
ag208
ag132
ag133
ag134
ag135
ag137
ag209
ag138
ag139
ag140
ag141
ag143
ag210
ag144
ag145
ag146
ag147
ag149
ag211
ag150
ag151
ag152
ag153
ag107
ag104
ag108
ag109
ag110
ag111
ag113
ag205
ag114
ag115
ag116
ag117
ag119
ag206
ag120
ag121
ag122
ag123
ag125
ag207
ag126
ag127
ag128
ag129
ag131
ag208
ag132
ag133
ag134
ag135
ag137
ag209
ag138
ag139
ag140
ag141
ag143
ag210
ag144
ag145
ag146
ag147
ag149
ag211
ag150
ag151
ag152
ag153
ag107
ag104
ag108
ag109
ag110
ag111
ag113
ag205
ag114
ag115
ag116
ag117
ag119
ag206
ag120
ag121
ag122
ag123
ag125
ag207
ag126
ag127
ag128
ag129
ag131
ag208
ag132
ag133
ag134
ag135
ag137
ag209
ag138
ag139
ag140
ag141
ag143
ag210
ag144
ag145
ag146
ag147
ag149
ag211
ag150
ag151
ag152
ag153
ag107
ag104
ag108
ag109
ag110
ag111
ag113
ag205
ag114
ag115
ag116
ag117
ag119
ag206
ag120
ag121
ag122
ag123
ag125
ag207
ag126
ag127
ag128
ag129
ag131
ag208
ag132
ag133
ag134
ag135
ag137
ag209
ag138
ag139
ag140
ag141
ag143
ag210
ag144
ag145
ag146
ag147
ag149
ag211
ag150
ag151
ag152
ag153
ag107
ag104
ag108
ag109
ag110
ag111
ag113
ag205
ag114
ag115
ag116
ag117
ag119
ag206
ag120
ag121
ag122
ag123
ag125
ag207
ag126
ag127
ag128
ag129
ag131
ag208
ag132
ag133
ag134
ag135
ag137
ag209
ag138
ag139
ag140
ag141
ag143
ag210
ag144
ag145
ag146
ag147
ag149
ag211
ag150
ag151
ag152
ag153
asg277
(lp392
g273
ag275
ag276
ag278
ag279
ag280
aV99061afc-74c8-11e2-a42d-00163e005319
p393
ag281
ag282
ag284
ag285
ag286
aV99061afc-74c8-11e2-a42d-00163e005319
p394
ag287
ag288
ag290
ag291
ag292
aV99061afc-74c8-11e2-a42d-00163e005319
p395
ag293
ag294
ag296
ag297
ag298
aV99061afc-74c8-11e2-a42d-00163e005319
p396
ag299
ag300
ag302
ag303
ag304
aV99061afc-74c8-11e2-a42d-00163e005319
p397
ag305
ag306
ag308
ag309
ag310
aV99061afc-74c8-11e2-a42d-00163e005319
p398
ag311
ag312
ag314
ag315
ag316
aV99061afc-74c8-11e2-a42d-00163e005319
p399
ag317
ag318
ag320
ag321
ag322
ag273
ag275
ag276
ag278
ag279
ag280
ag393
ag281
ag282
ag284
ag285
ag286
ag394
ag287
ag288
ag290
ag291
ag292
ag395
ag293
ag294
ag296
ag297
ag298
ag396
ag299
ag300
ag302
ag303
ag304
ag397
ag305
ag306
ag308
ag309
ag310
ag398
ag311
ag312
ag314
ag315
ag316
ag399
ag317
ag318
ag320
ag321
ag322
ag273
ag275
ag276
ag278
ag279
ag280
ag393
ag281
ag282
ag284
ag285
ag286
ag394
ag287
ag288
ag290
ag291
ag292
ag395
ag293
ag294
ag296
ag297
ag298
ag396
ag299
ag300
ag302
ag303
ag304
ag397
ag305
ag306
ag308
ag309
ag310
ag398
ag311
ag312
ag314
ag315
ag316
ag399
ag317
ag318
ag320
ag321
ag322
ag273
ag275
ag276
ag278
ag279
ag280
ag393
ag281
ag282
ag284
ag285
ag286
ag394
ag287
ag288
ag290
ag291
ag292
ag395
ag293
ag294
ag296
ag297
ag298
ag396
ag299
ag300
ag302
ag303
ag304
ag397
ag305
ag306
ag308
ag309
ag310
ag398
ag311
ag312
ag314
ag315
ag316
ag399
ag317
ag318
ag320
ag321
ag322
ag273
ag275
ag276
ag278
ag279
ag280
ag393
ag281
ag282
ag284
ag285
ag286
ag394
ag287
ag288
ag290
ag291
ag292
ag395
ag293
ag294
ag296
ag297
ag298
ag396
ag299
ag300
ag302
ag303
ag304
ag397
ag305
ag306
ag308
ag309
ag310
ag398
ag311
ag312
ag314
ag315
ag316
ag399
ag317
ag318
ag320
ag321
ag322
ag273
ag275
ag276
ag278
ag279
ag280
ag393
ag281
ag282
ag284
ag285
ag286
ag394
ag287
ag288
ag290
ag291
ag292
ag395
ag293
ag294
ag296
ag297
ag298
ag396
ag299
ag300
ag302
ag303
ag304
ag397
ag305
ag306
ag308
ag309
ag310
ag398
ag311
ag312
ag314
ag315
ag316
ag399
ag317
ag318
ag320
ag321
ag322
ag273
ag275
ag276
ag278
ag279
ag280
ag393
ag281
ag282
ag284
ag285
ag286
ag394
ag287
ag288
ag290
ag291
ag292
ag395
ag293
ag294
ag296
ag297
ag298
ag396
ag299
ag300
ag302
ag303
ag304
ag397
ag305
ag306
ag308
ag309
ag310
ag398
ag311
ag312
ag314
ag315
ag316
ag399
ag317
ag318
ag320
ag321
ag322
ag273
ag275
ag276
ag278
ag279
ag280
ag393
ag281
ag282
ag284
ag285
ag286
ag394
ag287
ag288
ag290
ag291
ag292
ag395
ag293
ag294
ag296
ag297
ag298
ag396
ag299
ag300
ag302
ag303
ag304
ag397
ag305
ag306
ag308
ag309
ag310
ag398
ag311
ag312
ag314
ag315
ag316
ag399
ag317
ag318
ag320
ag321
ag322
asg227
(lp400
g223
ag224
ag225
ag221
ag226
ag228
ag229
ag230
ag231
ag325
ag232
ag234
ag235
ag236
ag237
ag326
ag238
ag240
ag241
ag242
ag243
ag327
ag244
ag246
ag247
ag248
ag249
ag328
ag250
ag252
ag253
ag254
ag255
ag329
ag256
ag258
ag259
ag260
ag261
ag330
ag262
ag264
ag265
ag266
ag267
ag331
ag268
ag270
ag223
ag224
ag225
ag221
ag226
ag228
ag229
ag230
ag231
ag325
ag232
ag234
ag235
ag236
ag237
ag326
ag238
ag240
ag241
ag242
ag243
ag327
ag244
ag246
ag247
ag248
ag249
ag328
ag250
ag252
ag253
ag254
ag255
ag329
ag256
ag258
ag259
ag260
ag261
ag330
ag262
ag264
ag265
ag266
ag267
ag331
ag268
ag270
ag223
ag224
ag225
ag221
ag226
ag228
ag229
ag230
ag231
ag325
ag232
ag234
ag235
ag236
ag237
ag326
ag238
ag240
ag241
ag242
ag243
ag327
ag244
ag246
ag247
ag248
ag249
ag328
ag250
ag252
ag253
ag254
ag255
ag329
ag256
ag258
ag259
ag260
ag261
ag330
ag262
ag264
ag265
ag266
ag267
ag331
ag268
ag270
ag223
ag224
ag225
ag221
ag226
ag228
ag229
ag230
ag231
ag325
ag232
ag234
ag235
ag236
ag237
ag326
ag238
ag240
ag241
ag242
ag243
ag327
ag244
ag246
ag247
ag248
ag249
ag328
ag250
ag252
ag253
ag254
ag255
ag329
ag256
ag258
ag259
ag260
ag261
ag330
ag262
ag264
ag265
ag266
ag267
ag331
ag268
ag270
ag223
ag224
ag225
ag221
ag226
ag228
ag229
ag230
ag231
ag325
ag232
ag234
ag235
ag236
ag237
ag326
ag238
ag240
ag241
ag242
ag243
ag327
ag244
ag246
ag247
ag248
ag249
ag328
ag250
ag252
ag253
ag254
ag255
ag329
ag256
ag258
ag259
ag260
ag261
ag330
ag262
ag264
ag265
ag266
ag267
ag331
ag268
ag270
ag223
ag224
ag225
ag221
ag226
ag228
ag229
ag230
ag231
ag325
ag232
ag234
ag235
ag236
ag237
ag326
ag238
ag240
ag241
ag242
ag243
ag327
ag244
ag246
ag247
ag248
ag249
ag328
ag250
ag252
ag253
ag254
ag255
ag329
ag256
ag258
ag259
ag260
ag261
ag330
ag262
ag264
ag265
ag266
ag267
ag331
ag268
ag270
ag223
ag224
ag225
ag221
ag226
ag228
ag229
ag230
ag231
ag325
ag232
ag234
ag235
ag236
ag237
ag326
ag238
ag240
ag241
ag242
ag243
ag327
ag244
ag246
ag247
ag248
ag249
ag328
ag250
ag252
ag253
ag254
ag255
ag329
ag256
ag258
ag259
ag260
ag261
ag330
ag262
ag264
ag265
ag266
ag267
ag331
ag268
ag270
ag223
ag224
ag225
ag221
ag226
ag228
ag229
ag230
ag231
ag325
ag232
ag234
ag235
ag236
ag237
ag326
ag238
ag240
ag241
ag242
ag243
ag327
ag244
ag246
ag247
ag248
ag249
ag328
ag250
ag252
ag253
ag254
ag255
ag329
ag256
ag258
ag259
ag260
ag261
ag330
ag262
ag264
ag265
ag266
ag267
ag331
ag268
ag270
asg57
(lp401
g56
ag58
ag59
ag60
ag61
ag54
ag62
ag64
ag65
ag66
ag67
aV845dd964-74c8-11e2-a42d-00163e005319
p402
ag68
ag70
ag71
ag72
ag73
aV845dd964-74c8-11e2-a42d-00163e005319
p403
ag74
ag76
ag77
ag78
ag79
aV845dd964-74c8-11e2-a42d-00163e005319
p404
ag80
ag82
ag83
ag84
ag85
aV845dd964-74c8-11e2-a42d-00163e005319
p405
ag86
ag88
ag89
ag90
ag91
aV845dd964-74c8-11e2-a42d-00163e005319
p406
ag92
ag94
ag95
ag96
ag97
aV845dd964-74c8-11e2-a42d-00163e005319
p407
ag98
ag100
ag101
ag102
ag103
aV845dd964-74c8-11e2-a42d-00163e005319
p408
ag56
ag58
ag59
ag60
ag61
ag54
ag62
ag64
ag65
ag66
ag67
ag402
ag68
ag70
ag71
ag72
ag73
ag403
ag74
ag76
ag77
ag78
ag79
ag404
ag80
ag82
ag83
ag84
ag85
ag405
ag86
ag88
ag89
ag90
ag91
ag406
ag92
ag94
ag95
ag96
ag97
ag407
ag98
ag100
ag101
ag102
ag103
ag408
ag56
ag58
ag59
ag60
ag61
ag54
ag62
ag64
ag65
ag66
ag67
ag402
ag68
ag70
ag71
ag72
ag73
ag403
ag74
ag76
ag77
ag78
ag79
ag404
ag80
ag82
ag83
ag84
ag85
ag405
ag86
ag88
ag89
ag90
ag91
ag406
ag92
ag94
ag95
ag96
ag97
ag407
ag98
ag100
ag101
ag102
ag103
ag408
ag56
ag58
ag59
ag60
ag61
ag54
ag62
ag64
ag65
ag66
ag67
ag402
ag68
ag70
ag71
ag72
ag73
ag403
ag74
ag76
ag77
ag78
ag79
ag404
ag80
ag82
ag83
ag84
ag85
ag405
ag86
ag88
ag89
ag90
ag91
ag406
ag92
ag94
ag95
ag96
ag97
ag407
ag98
ag100
ag101
ag102
ag103
ag408
ag56
ag58
ag59
ag60
ag61
ag54
ag62
ag64
ag65
ag66
ag67
ag402
ag68
ag70
ag71
ag72
ag73
ag403
ag74
ag76
ag77
ag78
ag79
ag404
ag80
ag82
ag83
ag84
ag85
ag405
ag86
ag88
ag89
ag90
ag91
ag406
ag92
ag94
ag95
ag96
ag97
ag407
ag98
ag100
ag101
ag102
ag103
ag408
ag56
ag58
ag59
ag60
ag61
ag54
ag62
ag64
ag65
ag66
ag67
ag402
ag68
ag70
ag71
ag72
ag73
ag403
ag74
ag76
ag77
ag78
ag79
ag404
ag80
ag82
ag83
ag84
ag85
ag405
ag86
ag88
ag89
ag90
ag91
ag406
ag92
ag94
ag95
ag96
ag97
ag407
ag98
ag100
ag101
ag102
ag103
ag408
ag56
ag58
ag59
ag60
ag61
ag54
ag62
ag64
ag65
ag66
ag67
ag402
ag68
ag70
ag71
ag72
ag73
ag403
ag74
ag76
ag77
ag78
ag79
ag404
ag80
ag82
ag83
ag84
ag85
ag405
ag86
ag88
ag89
ag90
ag91
ag406
ag92
ag94
ag95
ag96
ag97
ag407
ag98
ag100
ag101
ag102
ag103
ag408
ag56
ag58
ag59
ag60
ag61
ag54
ag62
ag64
ag65
ag66
ag67
ag402
ag68
ag70
ag71
ag72
ag73
ag403
ag74
ag76
ag77
ag78
ag79
ag404
ag80
ag82
ag83
ag84
ag85
ag405
ag86
ag88
ag89
ag90
ag91
ag406
ag92
ag94
ag95
ag96
ag97
ag407
ag98
ag100
ag101
ag102
ag103
ag408
asg7
(lp409
g6
ag8
ag9
ag10
ag11
ag4
ag12
ag14
ag15
ag16
ag17
ag333
ag18
ag20
ag21
ag22
ag23
ag334
ag24
ag26
ag27
ag28
ag29
ag335
ag30
ag32
ag33
ag34
ag35
ag336
ag36
ag38
ag39
ag40
ag41
ag337
ag42
ag44
ag45
ag46
ag47
ag338
ag48
ag50
ag51
ag52
ag53
ag339
ag6
ag8
ag9
ag10
ag11
ag4
ag12
ag14
ag15
ag16
ag17
ag333
ag18
ag20
ag21
ag22
ag23
ag334
ag24
ag26
ag27
ag28
ag29
ag335
ag30
ag32
ag33
ag34
ag35
ag336
ag36
ag38
ag39
ag40
ag41
ag337
ag42
ag44
ag45
ag46
ag47
ag338
ag48
ag50
ag51
ag52
ag53
ag339
ag6
ag8
ag9
ag10
ag11
ag4
ag12
ag14
ag15
ag16
ag17
ag333
ag18
ag20
ag21
ag22
ag23
ag334
ag24
ag26
ag27
ag28
ag29
ag335
ag30
ag32
ag33
ag34
ag35
ag336
ag36
ag38
ag39
ag40
ag41
ag337
ag42
ag44
ag45
ag46
ag47
ag338
ag48
ag50
ag51
ag52
ag53
ag339
ag6
ag8
ag9
ag10
ag11
ag4
ag12
ag14
ag15
ag16
ag17
ag333
ag18
ag20
ag21
ag22
ag23
ag334
ag24
ag26
ag27
ag28
ag29
ag335
ag30
ag32
ag33
ag34
ag35
ag336
ag36
ag38
ag39
ag40
ag41
ag337
ag42
ag44
ag45
ag46
ag47
ag338
ag48
ag50
ag51
ag52
ag53
ag339
ag6
ag8
ag9
ag10
ag11
ag4
ag12
ag14
ag15
ag16
ag17
ag333
ag18
ag20
ag21
ag22
ag23
ag334
ag24
ag26
ag27
ag28
ag29
ag335
ag30
ag32
ag33
ag34
ag35
ag336
ag36
ag38
ag39
ag40
ag41
ag337
ag42
ag44
ag45
ag46
ag47
ag338
ag48
ag50
ag51
ag52
ag53
ag339
ag6
ag8
ag9
ag10
ag11
ag4
ag12
ag14
ag15
ag16
ag17
ag333
ag18
ag20
ag21
ag22
ag23
ag334
ag24
ag26
ag27
ag28
ag29
ag335
ag30
ag32
ag33
ag34
ag35
ag336
ag36
ag38
ag39
ag40
ag41
ag337
ag42
ag44
ag45
ag46
ag47
ag338
ag48
ag50
ag51
ag52
ag53
ag339
ag6
ag8
ag9
ag10
ag11
ag4
ag12
ag14
ag15
ag16
ag17
ag333
ag18
ag20
ag21
ag22
ag23
ag334
ag24
ag26
ag27
ag28
ag29
ag335
ag30
ag32
ag33
ag34
ag35
ag336
ag36
ag38
ag39
ag40
ag41
ag337
ag42
ag44
ag45
ag46
ag47
ag338
ag48
ag50
ag51
ag52
ag53
ag339
ag6
ag8
ag9
ag10
ag11
ag4
ag12
ag14
ag15
ag16
ag17
ag333
ag18
ag20
ag21
ag22
ag23
ag334
ag24
ag26
ag27
ag28
ag29
ag335
ag30
ag32
ag33
ag34
ag35
ag336
ag36
ag38
ag39
ag40
ag41
ag337
ag42
ag44
ag45
ag46
ag47
ag338
ag48
ag50
ag51
ag52
ag53
ag339
asg59
(lp410
g56
ag57
ag58
ag60
ag61
ag54
ag62
ag63
ag64
ag66
ag67
ag402
ag68
ag69
ag70
ag72
ag73
ag403
ag74
ag75
ag76
ag78
ag79
ag404
ag80
ag81
ag82
ag84
ag85
ag405
ag86
ag87
ag88
ag90
ag91
ag406
ag92
ag93
ag94
ag96
ag97
ag407
ag98
ag99
ag100
ag102
ag103
ag408
ag56
ag57
ag58
ag60
ag61
ag54
ag62
ag63
ag64
ag66
ag67
ag402
ag68
ag69
ag70
ag72
ag73
ag403
ag74
ag75
ag76
ag78
ag79
ag404
ag80
ag81
ag82
ag84
ag85
ag405
ag86
ag87
ag88
ag90
ag91
ag406
ag92
ag93
ag94
ag96
ag97
ag407
ag98
ag99
ag100
ag102
ag103
ag408
ag56
ag57
ag58
ag60
ag61
ag54
ag62
ag63
ag64
ag66
ag67
ag402
ag68
ag69
ag70
ag72
ag73
ag403
ag74
ag75
ag76
ag78
ag79
ag404
ag80
ag81
ag82
ag84
ag85
ag405
ag86
ag87
ag88
ag90
ag91
ag406
ag92
ag93
ag94
ag96
ag97
ag407
ag98
ag99
ag100
ag102
ag103
ag408
ag56
ag57
ag58
ag60
ag61
ag54
ag62
ag63
ag64
ag66
ag67
ag402
ag68
ag69
ag70
ag72
ag73
ag403
ag74
ag75
ag76
ag78
ag79
ag404
ag80
ag81
ag82
ag84
ag85
ag405
ag86
ag87
ag88
ag90
ag91
ag406
ag92
ag93
ag94
ag96
ag97
ag407
ag98
ag99
ag100
ag102
ag103
ag408
ag56
ag57
ag58
ag60
ag61
ag54
ag62
ag63
ag64
ag66
ag67
ag402
ag68
ag69
ag70
ag72
ag73
ag403
ag74
ag75
ag76
ag78
ag79
ag404
ag80
ag81
ag82
ag84
ag85
ag405
ag86
ag87
ag88
ag90
ag91
ag406
ag92
ag93
ag94
ag96
ag97
ag407
ag98
ag99
ag100
ag102
ag103
ag408
ag56
ag57
ag58
ag60
ag61
ag54
ag62
ag63
ag64
ag66
ag67
ag402
ag68
ag69
ag70
ag72
ag73
ag403
ag74
ag75
ag76
ag78
ag79
ag404
ag80
ag81
ag82
ag84
ag85
ag405
ag86
ag87
ag88
ag90
ag91
ag406
ag92
ag93
ag94
ag96
ag97
ag407
ag98
ag99
ag100
ag102
ag103
ag408
ag56
ag57
ag58
ag60
ag61
ag54
ag62
ag63
ag64
ag66
ag67
ag402
ag68
ag69
ag70
ag72
ag73
ag403
ag74
ag75
ag76
ag78
ag79
ag404
ag80
ag81
ag82
ag84
ag85
ag405
ag86
ag87
ag88
ag90
ag91
ag406
ag92
ag93
ag94
ag96
ag97
ag407
ag98
ag99
ag100
ag102
ag103
ag408
ag56
ag57
ag58
ag60
ag61
ag54
ag62
ag63
ag64
ag66
ag67
ag402
ag68
ag69
ag70
ag72
ag73
ag403
ag74
ag75
ag76
ag78
ag79
ag404
ag80
ag81
ag82
ag84
ag85
ag405
ag86
ag87
ag88
ag90
ag91
ag406
ag92
ag93
ag94
ag96
ag97
ag407
ag98
ag99
ag100
ag102
ag103
ag408
asg60
(lp411
g56
ag57
ag58
ag59
ag61
ag54
ag62
ag63
ag64
ag65
ag67
ag402
ag68
ag69
ag70
ag71
ag73
ag403
ag74
ag75
ag76
ag77
ag79
ag404
ag80
ag81
ag82
ag83
ag85
ag405
ag86
ag87
ag88
ag89
ag91
ag406
ag92
ag93
ag94
ag95
ag97
ag407
ag98
ag99
ag100
ag101
ag103
ag408
ag56
ag57
ag58
ag59
ag61
ag54
ag62
ag63
ag64
ag65
ag67
ag402
ag68
ag69
ag70
ag71
ag73
ag403
ag74
ag75
ag76
ag77
ag79
ag404
ag80
ag81
ag82
ag83
ag85
ag405
ag86
ag87
ag88
ag89
ag91
ag406
ag92
ag93
ag94
ag95
ag97
ag407
ag98
ag99
ag100
ag101
ag103
ag408
ag56
ag57
ag58
ag59
ag61
ag54
ag62
ag63
ag64
ag65
ag67
ag402
ag68
ag69
ag70
ag71
ag73
ag403
ag74
ag75
ag76
ag77
ag79
ag404
ag80
ag81
ag82
ag83
ag85
ag405
ag86
ag87
ag88
ag89
ag91
ag406
ag92
ag93
ag94
ag95
ag97
ag407
ag98
ag99
ag100
ag101
ag103
ag408
ag56
ag57
ag58
ag59
ag61
ag54
ag62
ag63
ag64
ag65
ag67
ag402
ag68
ag69
ag70
ag71
ag73
ag403
ag74
ag75
ag76
ag77
ag79
ag404
ag80
ag81
ag82
ag83
ag85
ag405
ag86
ag87
ag88
ag89
ag91
ag406
ag92
ag93
ag94
ag95
ag97
ag407
ag98
ag99
ag100
ag101
ag103
ag408
ag56
ag57
ag58
ag59
ag61
ag54
ag62
ag63
ag64
ag65
ag67
ag402
ag68
ag69
ag70
ag71
ag73
ag403
ag74
ag75
ag76
ag77
ag79
ag404
ag80
ag81
ag82
ag83
ag85
ag405
ag86
ag87
ag88
ag89
ag91
ag406
ag92
ag93
ag94
ag95
ag97
ag407
ag98
ag99
ag100
ag101
ag103
ag408
ag56
ag57
ag58
ag59
ag61
ag54
ag62
ag63
ag64
ag65
ag67
ag402
ag68
ag69
ag70
ag71
ag73
ag403
ag74
ag75
ag76
ag77
ag79
ag404
ag80
ag81
ag82
ag83
ag85
ag405
ag86
ag87
ag88
ag89
ag91
ag406
ag92
ag93
ag94
ag95
ag97
ag407
ag98
ag99
ag100
ag101
ag103
ag408
ag56
ag57
ag58
ag59
ag61
ag54
ag62
ag63
ag64
ag65
ag67
ag402
ag68
ag69
ag70
ag71
ag73
ag403
ag74
ag75
ag76
ag77
ag79
ag404
ag80
ag81
ag82
ag83
ag85
ag405
ag86
ag87
ag88
ag89
ag91
ag406
ag92
ag93
ag94
ag95
ag97
ag407
ag98
ag99
ag100
ag101
ag103
ag408
ag56
ag57
ag58
ag59
ag61
ag54
ag62
ag63
ag64
ag65
ag67
ag402
ag68
ag69
ag70
ag71
ag73
ag403
ag74
ag75
ag76
ag77
ag79
ag404
ag80
ag81
ag82
ag83
ag85
ag405
ag86
ag87
ag88
ag89
ag91
ag406
ag92
ag93
ag94
ag95
ag97
ag407
ag98
ag99
ag100
ag101
ag103
ag408
asg347
(lp412
g343
ag344
ag345
ag346
ag341
ag348
ag349
ag350
ag351
ag352
aV19d45134-77e0-11e2-83c4-00163e005319
p413
ag354
ag355
ag356
ag357
ag358
aV19d45134-77e0-11e2-83c4-00163e005319
p414
ag360
ag361
ag362
ag363
ag364
aV19d45134-77e0-11e2-83c4-00163e005319
p415
ag366
ag367
ag368
ag369
ag370
aV19d45134-77e0-11e2-83c4-00163e005319
p416
ag372
ag373
ag374
ag375
ag376
aV19d45134-77e0-11e2-83c4-00163e005319
p417
ag378
ag379
ag380
ag381
ag382
aV19d45134-77e0-11e2-83c4-00163e005319
p418
ag384
ag385
ag386
ag387
ag388
aV19d45134-77e0-11e2-83c4-00163e005319
p419
ag390
ag343
ag344
ag345
ag346
ag341
ag348
ag349
ag350
ag351
ag352
ag413
ag354
ag355
ag356
ag357
ag358
ag414
ag360
ag361
ag362
ag363
ag364
ag415
ag366
ag367
ag368
ag369
ag370
ag416
ag372
ag373
ag374
ag375
ag376
ag417
ag378
ag379
ag380
ag381
ag382
ag418
ag384
ag385
ag386
ag387
ag388
ag419
ag390
ag343
ag344
ag345
ag346
ag341
ag348
ag349
ag350
ag351
ag352
ag413
ag354
ag355
ag356
ag357
ag358
ag414
ag360
ag361
ag362
ag363
ag364
ag415
ag366
ag367
ag368
ag369
ag370
ag416
ag372
ag373
ag374
ag375
ag376
ag417
ag378
ag379
ag380
ag381
ag382
ag418
ag384
ag385
ag386
ag387
ag388
ag419
ag390
ag343
ag344
ag345
ag346
ag341
ag348
ag349
ag350
ag351
ag352
ag413
ag354
ag355
ag356
ag357
ag358
ag414
ag360
ag361
ag362
ag363
ag364
ag415
ag366
ag367
ag368
ag369
ag370
ag416
ag372
ag373
ag374
ag375
ag376
ag417
ag378
ag379
ag380
ag381
ag382
ag418
ag384
ag385
ag386
ag387
ag388
ag419
ag390
ag343
ag344
ag345
ag346
ag341
ag348
ag349
ag350
ag351
ag352
ag413
ag354
ag355
ag356
ag357
ag358
ag414
ag360
ag361
ag362
ag363
ag364
ag415
ag366
ag367
ag368
ag369
ag370
ag416
ag372
ag373
ag374
ag375
ag376
ag417
ag378
ag379
ag380
ag381
ag382
ag418
ag384
ag385
ag386
ag387
ag388
ag419
ag390
ag343
ag344
ag345
ag346
ag341
ag348
ag349
ag350
ag351
ag352
ag413
ag354
ag355
ag356
ag357
ag358
ag414
ag360
ag361
ag362
ag363
ag364
ag415
ag366
ag367
ag368
ag369
ag370
ag416
ag372
ag373
ag374
ag375
ag376
ag417
ag378
ag379
ag380
ag381
ag382
ag418
ag384
ag385
ag386
ag387
ag388
ag419
ag390
ag343
ag344
ag345
ag346
ag341
ag348
ag349
ag350
ag351
ag352
ag413
ag354
ag355
ag356
ag357
ag358
ag414
ag360
ag361
ag362
ag363
ag364
ag415
ag366
ag367
ag368
ag369
ag370
ag416
ag372
ag373
ag374
ag375
ag376
ag417
ag378
ag379
ag380
ag381
ag382
ag418
ag384
ag385
ag386
ag387
ag388
ag419
ag390
ag343
ag344
ag345
ag346
ag341
ag348
ag349
ag350
ag351
ag352
ag413
ag354
ag355
ag356
ag357
ag358
ag414
ag360
ag361
ag362
ag363
ag364
ag415
ag366
ag367
ag368
ag369
ag370
ag416
ag372
ag373
ag374
ag375
ag376
ag417
ag378
ag379
ag380
ag381
ag382
ag418
ag384
ag385
ag386
ag387
ag388
ag419
ag390
asg161
(lp420
g154
ag156
ag157
ag158
ag159
ag160
ag213
ag162
ag163
ag164
ag165
ag166
ag214
ag168
ag169
ag170
ag171
ag172
ag215
ag174
ag175
ag176
ag177
ag178
ag216
ag180
ag181
ag182
ag183
ag184
ag217
ag186
ag187
ag188
ag189
ag190
ag218
ag192
ag193
ag194
ag195
ag196
ag219
ag198
ag199
ag200
ag201
ag202
ag154
ag156
ag157
ag158
ag159
ag160
ag213
ag162
ag163
ag164
ag165
ag166
ag214
ag168
ag169
ag170
ag171
ag172
ag215
ag174
ag175
ag176
ag177
ag178
ag216
ag180
ag181
ag182
ag183
ag184
ag217
ag186
ag187
ag188
ag189
ag190
ag218
ag192
ag193
ag194
ag195
ag196
ag219
ag198
ag199
ag200
ag201
ag202
ag154
ag156
ag157
ag158
ag159
ag160
ag213
ag162
ag163
ag164
ag165
ag166
ag214
ag168
ag169
ag170
ag171
ag172
ag215
ag174
ag175
ag176
ag177
ag178
ag216
ag180
ag181
ag182
ag183
ag184
ag217
ag186
ag187
ag188
ag189
ag190
ag218
ag192
ag193
ag194
ag195
ag196
ag219
ag198
ag199
ag200
ag201
ag202
ag154
ag156
ag157
ag158
ag159
ag160
ag213
ag162
ag163
ag164
ag165
ag166
ag214
ag168
ag169
ag170
ag171
ag172
ag215
ag174
ag175
ag176
ag177
ag178
ag216
ag180
ag181
ag182
ag183
ag184
ag217
ag186
ag187
ag188
ag189
ag190
ag218
ag192
ag193
ag194
ag195
ag196
ag219
ag198
ag199
ag200
ag201
ag202
ag154
ag156
ag157
ag158
ag159
ag160
ag213
ag162
ag163
ag164
ag165
ag166
ag214
ag168
ag169
ag170
ag171
ag172
ag215
ag174
ag175
ag176
ag177
ag178
ag216
ag180
ag181
ag182
ag183
ag184
ag217
ag186
ag187
ag188
ag189
ag190
ag218
ag192
ag193
ag194
ag195
ag196
ag219
ag198
ag199
ag200
ag201
ag202
ag154
ag156
ag157
ag158
ag159
ag160
ag213
ag162
ag163
ag164
ag165
ag166
ag214
ag168
ag169
ag170
ag171
ag172
ag215
ag174
ag175
ag176
ag177
ag178
ag216
ag180
ag181
ag182
ag183
ag184
ag217
ag186
ag187
ag188
ag189
ag190
ag218
ag192
ag193
ag194
ag195
ag196
ag219
ag198
ag199
ag200
ag201
ag202
ag154
ag156
ag157
ag158
ag159
ag160
ag213
ag162
ag163
ag164
ag165
ag166
ag214
ag168
ag169
ag170
ag171
ag172
ag215
ag174
ag175
ag176
ag177
ag178
ag216
ag180
ag181
ag182
ag183
ag184
ag217
ag186
ag187
ag188
ag189
ag190
ag218
ag192
ag193
ag194
ag195
ag196
ag219
ag198
ag199
ag200
ag201
ag202
ag154
ag156
ag157
ag158
ag159
ag160
ag213
ag162
ag163
ag164
ag165
ag166
ag214
ag168
ag169
ag170
ag171
ag172
ag215
ag174
ag175
ag176
ag177
ag178
ag216
ag180
ag181
ag182
ag183
ag184
ag217
ag186
ag187
ag188
ag189
ag190
ag218
ag192
ag193
ag194
ag195
ag196
ag219
ag198
ag199
ag200
ag201
ag202
asg225
(lp421
g223
ag224
ag221
ag226
ag227
ag228
ag229
ag230
ag325
ag232
ag233
ag234
ag235
ag236
ag326
ag238
ag239
ag240
ag241
ag242
ag327
ag244
ag245
ag246
ag247
ag248
ag328
ag250
ag251
ag252
ag253
ag254
ag329
ag256
ag257
ag258
ag259
ag260
ag330
ag262
ag263
ag264
ag265
ag266
ag331
ag268
ag269
ag270
ag223
ag224
ag221
ag226
ag227
ag228
ag229
ag230
ag325
ag232
ag233
ag234
ag235
ag236
ag326
ag238
ag239
ag240
ag241
ag242
ag327
ag244
ag245
ag246
ag247
ag248
ag328
ag250
ag251
ag252
ag253
ag254
ag329
ag256
ag257
ag258
ag259
ag260
ag330
ag262
ag263
ag264
ag265
ag266
ag331
ag268
ag269
ag270
ag223
ag224
ag221
ag226
ag227
ag228
ag229
ag230
ag325
ag232
ag233
ag234
ag235
ag236
ag326
ag238
ag239
ag240
ag241
ag242
ag327
ag244
ag245
ag246
ag247
ag248
ag328
ag250
ag251
ag252
ag253
ag254
ag329
ag256
ag257
ag258
ag259
ag260
ag330
ag262
ag263
ag264
ag265
ag266
ag331
ag268
ag269
ag270
ag223
ag224
ag221
ag226
ag227
ag228
ag229
ag230
ag325
ag232
ag233
ag234
ag235
ag236
ag326
ag238
ag239
ag240
ag241
ag242
ag327
ag244
ag245
ag246
ag247
ag248
ag328
ag250
ag251
ag252
ag253
ag254
ag329
ag256
ag257
ag258
ag259
ag260
ag330
ag262
ag263
ag264
ag265
ag266
ag331
ag268
ag269
ag270
ag223
ag224
ag221
ag226
ag227
ag228
ag229
ag230
ag325
ag232
ag233
ag234
ag235
ag236
ag326
ag238
ag239
ag240
ag241
ag242
ag327
ag244
ag245
ag246
ag247
ag248
ag328
ag250
ag251
ag252
ag253
ag254
ag329
ag256
ag257
ag258
ag259
ag260
ag330
ag262
ag263
ag264
ag265
ag266
ag331
ag268
ag269
ag270
ag223
ag224
ag221
ag226
ag227
ag228
ag229
ag230
ag325
ag232
ag233
ag234
ag235
ag236
ag326
ag238
ag239
ag240
ag241
ag242
ag327
ag244
ag245
ag246
ag247
ag248
ag328
ag250
ag251
ag252
ag253
ag254
ag329
ag256
ag257
ag258
ag259
ag260
ag330
ag262
ag263
ag264
ag265
ag266
ag331
ag268
ag269
ag270
ag223
ag224
ag221
ag226
ag227
ag228
ag229
ag230
ag325
ag232
ag233
ag234
ag235
ag236
ag326
ag238
ag239
ag240
ag241
ag242
ag327
ag244
ag245
ag246
ag247
ag248
ag328
ag250
ag251
ag252
ag253
ag254
ag329
ag256
ag257
ag258
ag259
ag260
ag330
ag262
ag263
ag264
ag265
ag266
ag331
ag268
ag269
ag270
ag223
ag224
ag221
ag226
ag227
ag228
ag229
ag230
ag325
ag232
ag233
ag234
ag235
ag236
ag326
ag238
ag239
ag240
ag241
ag242
ag327
ag244
ag245
ag246
ag247
ag248
ag328
ag250
ag251
ag252
ag253
ag254
ag329
ag256
ag257
ag258
ag259
ag260
ag330
ag262
ag263
ag264
ag265
ag266
ag331
ag268
ag269
ag270
asg228
(lp422
g223
ag224
ag225
ag221
ag226
ag227
ag229
ag230
ag231
ag325
ag232
ag233
ag235
ag236
ag237
ag326
ag238
ag239
ag241
ag242
ag243
ag327
ag244
ag245
ag247
ag248
ag249
ag328
ag250
ag251
ag253
ag254
ag255
ag329
ag256
ag257
ag259
ag260
ag261
ag330
ag262
ag263
ag265
ag266
ag267
ag331
ag268
ag269
ag223
ag224
ag225
ag221
ag226
ag227
ag229
ag230
ag231
ag325
ag232
ag233
ag235
ag236
ag237
ag326
ag238
ag239
ag241
ag242
ag243
ag327
ag244
ag245
ag247
ag248
ag249
ag328
ag250
ag251
ag253
ag254
ag255
ag329
ag256
ag257
ag259
ag260
ag261
ag330
ag262
ag263
ag265
ag266
ag267
ag331
ag268
ag269
ag223
ag224
ag225
ag221
ag226
ag227
ag229
ag230
ag231
ag325
ag232
ag233
ag235
ag236
ag237
ag326
ag238
ag239
ag241
ag242
ag243
ag327
ag244
ag245
ag247
ag248
ag249
ag328
ag250
ag251
ag253
ag254
ag255
ag329
ag256
ag257
ag259
ag260
ag261
ag330
ag262
ag263
ag265
ag266
ag267
ag331
ag268
ag269
ag223
ag224
ag225
ag221
ag226
ag227
ag229
ag230
ag231
ag325
ag232
ag233
ag235
ag236
ag237
ag326
ag238
ag239
ag241
ag242
ag243
ag327
ag244
ag245
ag247
ag248
ag249
ag328
ag250
ag251
ag253
ag254
ag255
ag329
ag256
ag257
ag259
ag260
ag261
ag330
ag262
ag263
ag265
ag266
ag267
ag331
ag268
ag269
ag223
ag224
ag225
ag221
ag226
ag227
ag229
ag230
ag231
ag325
ag232
ag233
ag235
ag236
ag237
ag326
ag238
ag239
ag241
ag242
ag243
ag327
ag244
ag245
ag247
ag248
ag249
ag328
ag250
ag251
ag253
ag254
ag255
ag329
ag256
ag257
ag259
ag260
ag261
ag330
ag262
ag263
ag265
ag266
ag267
ag331
ag268
ag269
ag223
ag224
ag225
ag221
ag226
ag227
ag229
ag230
ag231
ag325
ag232
ag233
ag235
ag236
ag237
ag326
ag238
ag239
ag241
ag242
ag243
ag327
ag244
ag245
ag247
ag248
ag249
ag328
ag250
ag251
ag253
ag254
ag255
ag329
ag256
ag257
ag259
ag260
ag261
ag330
ag262
ag263
ag265
ag266
ag267
ag331
ag268
ag269
ag223
ag224
ag225
ag221
ag226
ag227
ag229
ag230
ag231
ag325
ag232
ag233
ag235
ag236
ag237
ag326
ag238
ag239
ag241
ag242
ag243
ag327
ag244
ag245
ag247
ag248
ag249
ag328
ag250
ag251
ag253
ag254
ag255
ag329
ag256
ag257
ag259
ag260
ag261
ag330
ag262
ag263
ag265
ag266
ag267
ag331
ag268
ag269
ag223
ag224
ag225
ag221
ag226
ag227
ag229
ag230
ag231
ag325
ag232
ag233
ag235
ag236
ag237
ag326
ag238
ag239
ag241
ag242
ag243
ag327
ag244
ag245
ag247
ag248
ag249
ag328
ag250
ag251
ag253
ag254
ag255
ag329
ag256
ag257
ag259
ag260
ag261
ag330
ag262
ag263
ag265
ag266
ag267
ag331
ag268
ag269
asg279
(lp423
g273
ag275
ag276
ag277
ag278
ag280
ag393
ag281
ag282
ag283
ag284
ag286
ag394
ag287
ag288
ag289
ag290
ag292
ag395
ag293
ag294
ag295
ag296
ag298
ag396
ag299
ag300
ag301
ag302
ag304
ag397
ag305
ag306
ag307
ag308
ag310
ag398
ag311
ag312
ag313
ag314
ag316
ag399
ag317
ag318
ag319
ag320
ag322
ag273
ag275
ag276
ag277
ag278
ag280
ag393
ag281
ag282
ag283
ag284
ag286
ag394
ag287
ag288
ag289
ag290
ag292
ag395
ag293
ag294
ag295
ag296
ag298
ag396
ag299
ag300
ag301
ag302
ag304
ag397
ag305
ag306
ag307
ag308
ag310
ag398
ag311
ag312
ag313
ag314
ag316
ag399
ag317
ag318
ag319
ag320
ag322
ag273
ag275
ag276
ag277
ag278
ag280
ag393
ag281
ag282
ag283
ag284
ag286
ag394
ag287
ag288
ag289
ag290
ag292
ag395
ag293
ag294
ag295
ag296
ag298
ag396
ag299
ag300
ag301
ag302
ag304
ag397
ag305
ag306
ag307
ag308
ag310
ag398
ag311
ag312
ag313
ag314
ag316
ag399
ag317
ag318
ag319
ag320
ag322
ag273
ag275
ag276
ag277
ag278
ag280
ag393
ag281
ag282
ag283
ag284
ag286
ag394
ag287
ag288
ag289
ag290
ag292
ag395
ag293
ag294
ag295
ag296
ag298
ag396
ag299
ag300
ag301
ag302
ag304
ag397
ag305
ag306
ag307
ag308
ag310
ag398
ag311
ag312
ag313
ag314
ag316
ag399
ag317
ag318
ag319
ag320
ag322
ag273
ag275
ag276
ag277
ag278
ag280
ag393
ag281
ag282
ag283
ag284
ag286
ag394
ag287
ag288
ag289
ag290
ag292
ag395
ag293
ag294
ag295
ag296
ag298
ag396
ag299
ag300
ag301
ag302
ag304
ag397
ag305
ag306
ag307
ag308
ag310
ag398
ag311
ag312
ag313
ag314
ag316
ag399
ag317
ag318
ag319
ag320
ag322
ag273
ag275
ag276
ag277
ag278
ag280
ag393
ag281
ag282
ag283
ag284
ag286
ag394
ag287
ag288
ag289
ag290
ag292
ag395
ag293
ag294
ag295
ag296
ag298
ag396
ag299
ag300
ag301
ag302
ag304
ag397
ag305
ag306
ag307
ag308
ag310
ag398
ag311
ag312
ag313
ag314
ag316
ag399
ag317
ag318
ag319
ag320
ag322
ag273
ag275
ag276
ag277
ag278
ag280
ag393
ag281
ag282
ag283
ag284
ag286
ag394
ag287
ag288
ag289
ag290
ag292
ag395
ag293
ag294
ag295
ag296
ag298
ag396
ag299
ag300
ag301
ag302
ag304
ag397
ag305
ag306
ag307
ag308
ag310
ag398
ag311
ag312
ag313
ag314
ag316
ag399
ag317
ag318
ag319
ag320
ag322
ag273
ag275
ag276
ag277
ag278
ag280
ag393
ag281
ag282
ag283
ag284
ag286
ag394
ag287
ag288
ag289
ag290
ag292
ag395
ag293
ag294
ag295
ag296
ag298
ag396
ag299
ag300
ag301
ag302
ag304
ag397
ag305
ag306
ag307
ag308
ag310
ag398
ag311
ag312
ag313
ag314
ag316
ag399
ag317
ag318
ag319
ag320
ag322
asg276
(lp424
g273
ag275
ag277
ag278
ag279
ag280
ag393
ag281
ag283
ag284
ag285
ag286
ag394
ag287
ag289
ag290
ag291
ag292
ag395
ag293
ag295
ag296
ag297
ag298
ag396
ag299
ag301
ag302
ag303
ag304
ag397
ag305
ag307
ag308
ag309
ag310
ag398
ag311
ag313
ag314
ag315
ag316
ag399
ag317
ag319
ag320
ag321
ag322
ag273
ag275
ag277
ag278
ag279
ag280
ag393
ag281
ag283
ag284
ag285
ag286
ag394
ag287
ag289
ag290
ag291
ag292
ag395
ag293
ag295
ag296
ag297
ag298
ag396
ag299
ag301
ag302
ag303
ag304
ag397
ag305
ag307
ag308
ag309
ag310
ag398
ag311
ag313
ag314
ag315
ag316
ag399
ag317
ag319
ag320
ag321
ag322
ag273
ag275
ag277
ag278
ag279
ag280
ag393
ag281
ag283
ag284
ag285
ag286
ag394
ag287
ag289
ag290
ag291
ag292
ag395
ag293
ag295
ag296
ag297
ag298
ag396
ag299
ag301
ag302
ag303
ag304
ag397
ag305
ag307
ag308
ag309
ag310
ag398
ag311
ag313
ag314
ag315
ag316
ag399
ag317
ag319
ag320
ag321
ag322
ag273
ag275
ag277
ag278
ag279
ag280
ag393
ag281
ag283
ag284
ag285
ag286
ag394
ag287
ag289
ag290
ag291
ag292
ag395
ag293
ag295
ag296
ag297
ag298
ag396
ag299
ag301
ag302
ag303
ag304
ag397
ag305
ag307
ag308
ag309
ag310
ag398
ag311
ag313
ag314
ag315
ag316
ag399
ag317
ag319
ag320
ag321
ag322
ag273
ag275
ag277
ag278
ag279
ag280
ag393
ag281
ag283
ag284
ag285
ag286
ag394
ag287
ag289
ag290
ag291
ag292
ag395
ag293
ag295
ag296
ag297
ag298
ag396
ag299
ag301
ag302
ag303
ag304
ag397
ag305
ag307
ag308
ag309
ag310
ag398
ag311
ag313
ag314
ag315
ag316
ag399
ag317
ag319
ag320
ag321
ag322
ag273
ag275
ag277
ag278
ag279
ag280
ag393
ag281
ag283
ag284
ag285
ag286
ag394
ag287
ag289
ag290
ag291
ag292
ag395
ag293
ag295
ag296
ag297
ag298
ag396
ag299
ag301
ag302
ag303
ag304
ag397
ag305
ag307
ag308
ag309
ag310
ag398
ag311
ag313
ag314
ag315
ag316
ag399
ag317
ag319
ag320
ag321
ag322
ag273
ag275
ag277
ag278
ag279
ag280
ag393
ag281
ag283
ag284
ag285
ag286
ag394
ag287
ag289
ag290
ag291
ag292
ag395
ag293
ag295
ag296
ag297
ag298
ag396
ag299
ag301
ag302
ag303
ag304
ag397
ag305
ag307
ag308
ag309
ag310
ag398
ag311
ag313
ag314
ag315
ag316
ag399
ag317
ag319
ag320
ag321
ag322
ag273
ag275
ag277
ag278
ag279
ag280
ag393
ag281
ag283
ag284
ag285
ag286
ag394
ag287
ag289
ag290
ag291
ag292
ag395
ag293
ag295
ag296
ag297
ag298
ag396
ag299
ag301
ag302
ag303
ag304
ag397
ag305
ag307
ag308
ag309
ag310
ag398
ag311
ag313
ag314
ag315
ag316
ag399
ag317
ag319
ag320
ag321
ag322
asg61
(lp425
g56
ag57
ag58
ag59
ag60
ag54
ag62
ag63
ag64
ag65
ag66
ag402
ag68
ag69
ag70
ag71
ag72
ag403
ag74
ag75
ag76
ag77
ag78
ag404
ag80
ag81
ag82
ag83
ag84
ag405
ag86
ag87
ag88
ag89
ag90
ag406
ag92
ag93
ag94
ag95
ag96
ag407
ag98
ag99
ag100
ag101
ag102
ag408
ag56
ag57
ag58
ag59
ag60
ag54
ag62
ag63
ag64
ag65
ag66
ag402
ag68
ag69
ag70
ag71
ag72
ag403
ag74
ag75
ag76
ag77
ag78
ag404
ag80
ag81
ag82
ag83
ag84
ag405
ag86
ag87
ag88
ag89
ag90
ag406
ag92
ag93
ag94
ag95
ag96
ag407
ag98
ag99
ag100
ag101
ag102
ag408
ag56
ag57
ag58
ag59
ag60
ag54
ag62
ag63
ag64
ag65
ag66
ag402
ag68
ag69
ag70
ag71
ag72
ag403
ag74
ag75
ag76
ag77
ag78
ag404
ag80
ag81
ag82
ag83
ag84
ag405
ag86
ag87
ag88
ag89
ag90
ag406
ag92
ag93
ag94
ag95
ag96
ag407
ag98
ag99
ag100
ag101
ag102
ag408
ag56
ag57
ag58
ag59
ag60
ag54
ag62
ag63
ag64
ag65
ag66
ag402
ag68
ag69
ag70
ag71
ag72
ag403
ag74
ag75
ag76
ag77
ag78
ag404
ag80
ag81
ag82
ag83
ag84
ag405
ag86
ag87
ag88
ag89
ag90
ag406
ag92
ag93
ag94
ag95
ag96
ag407
ag98
ag99
ag100
ag101
ag102
ag408
ag56
ag57
ag58
ag59
ag60
ag54
ag62
ag63
ag64
ag65
ag66
ag402
ag68
ag69
ag70
ag71
ag72
ag403
ag74
ag75
ag76
ag77
ag78
ag404
ag80
ag81
ag82
ag83
ag84
ag405
ag86
ag87
ag88
ag89
ag90
ag406
ag92
ag93
ag94
ag95
ag96
ag407
ag98
ag99
ag100
ag101
ag102
ag408
ag56
ag57
ag58
ag59
ag60
ag54
ag62
ag63
ag64
ag65
ag66
ag402
ag68
ag69
ag70
ag71
ag72
ag403
ag74
ag75
ag76
ag77
ag78
ag404
ag80
ag81
ag82
ag83
ag84
ag405
ag86
ag87
ag88
ag89
ag90
ag406
ag92
ag93
ag94
ag95
ag96
ag407
ag98
ag99
ag100
ag101
ag102
ag408
ag56
ag57
ag58
ag59
ag60
ag54
ag62
ag63
ag64
ag65
ag66
ag402
ag68
ag69
ag70
ag71
ag72
ag403
ag74
ag75
ag76
ag77
ag78
ag404
ag80
ag81
ag82
ag83
ag84
ag405
ag86
ag87
ag88
ag89
ag90
ag406
ag92
ag93
ag94
ag95
ag96
ag407
ag98
ag99
ag100
ag101
ag102
ag408
ag56
ag57
ag58
ag59
ag60
ag54
ag62
ag63
ag64
ag65
ag66
ag402
ag68
ag69
ag70
ag71
ag72
ag403
ag74
ag75
ag76
ag77
ag78
ag404
ag80
ag81
ag82
ag83
ag84
ag405
ag86
ag87
ag88
ag89
ag90
ag406
ag92
ag93
ag94
ag95
ag96
ag407
ag98
ag99
ag100
ag101
ag102
ag408
asg56
(lp426
g57
ag58
ag59
ag60
ag61
ag54
ag63
ag64
ag65
ag66
ag67
ag402
ag69
ag70
ag71
ag72
ag73
ag403
ag75
ag76
ag77
ag78
ag79
ag404
ag81
ag82
ag83
ag84
ag85
ag405
ag87
ag88
ag89
ag90
ag91
ag406
ag93
ag94
ag95
ag96
ag97
ag407
ag99
ag100
ag101
ag102
ag103
ag408
ag57
ag58
ag59
ag60
ag61
ag54
ag63
ag64
ag65
ag66
ag67
ag402
ag69
ag70
ag71
ag72
ag73
ag403
ag75
ag76
ag77
ag78
ag79
ag404
ag81
ag82
ag83
ag84
ag85
ag405
ag87
ag88
ag89
ag90
ag91
ag406
ag93
ag94
ag95
ag96
ag97
ag407
ag99
ag100
ag101
ag102
ag103
ag408
ag57
ag58
ag59
ag60
ag61
ag54
ag63
ag64
ag65
ag66
ag67
ag402
ag69
ag70
ag71
ag72
ag73
ag403
ag75
ag76
ag77
ag78
ag79
ag404
ag81
ag82
ag83
ag84
ag85
ag405
ag87
ag88
ag89
ag90
ag91
ag406
ag93
ag94
ag95
ag96
ag97
ag407
ag99
ag100
ag101
ag102
ag103
ag408
ag57
ag58
ag59
ag60
ag61
ag54
ag63
ag64
ag65
ag66
ag67
ag402
ag69
ag70
ag71
ag72
ag73
ag403
ag75
ag76
ag77
ag78
ag79
ag404
ag81
ag82
ag83
ag84
ag85
ag405
ag87
ag88
ag89
ag90
ag91
ag406
ag93
ag94
ag95
ag96
ag97
ag407
ag99
ag100
ag101
ag102
ag103
ag408
ag57
ag58
ag59
ag60
ag61
ag54
ag63
ag64
ag65
ag66
ag67
ag402
ag69
ag70
ag71
ag72
ag73
ag403
ag75
ag76
ag77
ag78
ag79
ag404
ag81
ag82
ag83
ag84
ag85
ag405
ag87
ag88
ag89
ag90
ag91
ag406
ag93
ag94
ag95
ag96
ag97
ag407
ag99
ag100
ag101
ag102
ag103
ag408
ag57
ag58
ag59
ag60
ag61
ag54
ag63
ag64
ag65
ag66
ag67
ag402
ag69
ag70
ag71
ag72
ag73
ag403
ag75
ag76
ag77
ag78
ag79
ag404
ag81
ag82
ag83
ag84
ag85
ag405
ag87
ag88
ag89
ag90
ag91
ag406
ag93
ag94
ag95
ag96
ag97
ag407
ag99
ag100
ag101
ag102
ag103
ag408
ag57
ag58
ag59
ag60
ag61
ag54
ag63
ag64
ag65
ag66
ag67
ag402
ag69
ag70
ag71
ag72
ag73
ag403
ag75
ag76
ag77
ag78
ag79
ag404
ag81
ag82
ag83
ag84
ag85
ag405
ag87
ag88
ag89
ag90
ag91
ag406
ag93
ag94
ag95
ag96
ag97
ag407
ag99
ag100
ag101
ag102
ag103
ag408
ag57
ag58
ag59
ag60
ag61
ag54
ag63
ag64
ag65
ag66
ag67
ag402
ag69
ag70
ag71
ag72
ag73
ag403
ag75
ag76
ag77
ag78
ag79
ag404
ag81
ag82
ag83
ag84
ag85
ag405
ag87
ag88
ag89
ag90
ag91
ag406
ag93
ag94
ag95
ag96
ag97
ag407
ag99
ag100
ag101
ag102
ag103
ag408
asg58
(lp427
g56
ag57
ag59
ag60
ag61
ag54
ag62
ag63
ag65
ag66
ag67
ag402
ag68
ag69
ag71
ag72
ag73
ag403
ag74
ag75
ag77
ag78
ag79
ag404
ag80
ag81
ag83
ag84
ag85
ag405
ag86
ag87
ag89
ag90
ag91
ag406
ag92
ag93
ag95
ag96
ag97
ag407
ag98
ag99
ag101
ag102
ag103
ag408
ag56
ag57
ag59
ag60
ag61
ag54
ag62
ag63
ag65
ag66
ag67
ag402
ag68
ag69
ag71
ag72
ag73
ag403
ag74
ag75
ag77
ag78
ag79
ag404
ag80
ag81
ag83
ag84
ag85
ag405
ag86
ag87
ag89
ag90
ag91
ag406
ag92
ag93
ag95
ag96
ag97
ag407
ag98
ag99
ag101
ag102
ag103
ag408
ag56
ag57
ag59
ag60
ag61
ag54
ag62
ag63
ag65
ag66
ag67
ag402
ag68
ag69
ag71
ag72
ag73
ag403
ag74
ag75
ag77
ag78
ag79
ag404
ag80
ag81
ag83
ag84
ag85
ag405
ag86
ag87
ag89
ag90
ag91
ag406
ag92
ag93
ag95
ag96
ag97
ag407
ag98
ag99
ag101
ag102
ag103
ag408
ag56
ag57
ag59
ag60
ag61
ag54
ag62
ag63
ag65
ag66
ag67
ag402
ag68
ag69
ag71
ag72
ag73
ag403
ag74
ag75
ag77
ag78
ag79
ag404
ag80
ag81
ag83
ag84
ag85
ag405
ag86
ag87
ag89
ag90
ag91
ag406
ag92
ag93
ag95
ag96
ag97
ag407
ag98
ag99
ag101
ag102
ag103
ag408
ag56
ag57
ag59
ag60
ag61
ag54
ag62
ag63
ag65
ag66
ag67
ag402
ag68
ag69
ag71
ag72
ag73
ag403
ag74
ag75
ag77
ag78
ag79
ag404
ag80
ag81
ag83
ag84
ag85
ag405
ag86
ag87
ag89
ag90
ag91
ag406
ag92
ag93
ag95
ag96
ag97
ag407
ag98
ag99
ag101
ag102
ag103
ag408
ag56
ag57
ag59
ag60
ag61
ag54
ag62
ag63
ag65
ag66
ag67
ag402
ag68
ag69
ag71
ag72
ag73
ag403
ag74
ag75
ag77
ag78
ag79
ag404
ag80
ag81
ag83
ag84
ag85
ag405
ag86
ag87
ag89
ag90
ag91
ag406
ag92
ag93
ag95
ag96
ag97
ag407
ag98
ag99
ag101
ag102
ag103
ag408
ag56
ag57
ag59
ag60
ag61
ag54
ag62
ag63
ag65
ag66
ag67
ag402
ag68
ag69
ag71
ag72
ag73
ag403
ag74
ag75
ag77
ag78
ag79
ag404
ag80
ag81
ag83
ag84
ag85
ag405
ag86
ag87
ag89
ag90
ag91
ag406
ag92
ag93
ag95
ag96
ag97
ag407
ag98
ag99
ag101
ag102
ag103
ag408
ag56
ag57
ag59
ag60
ag61
ag54
ag62
ag63
ag65
ag66
ag67
ag402
ag68
ag69
ag71
ag72
ag73
ag403
ag74
ag75
ag77
ag78
ag79
ag404
ag80
ag81
ag83
ag84
ag85
ag405
ag86
ag87
ag89
ag90
ag91
ag406
ag92
ag93
ag95
ag96
ag97
ag407
ag98
ag99
ag101
ag102
ag103
ag408
asg275
(lp428
g273
ag276
ag277
ag278
ag279
ag280
ag393
ag282
ag283
ag284
ag285
ag286
ag394
ag288
ag289
ag290
ag291
ag292
ag395
ag294
ag295
ag296
ag297
ag298
ag396
ag300
ag301
ag302
ag303
ag304
ag397
ag306
ag307
ag308
ag309
ag310
ag398
ag312
ag313
ag314
ag315
ag316
ag399
ag318
ag319
ag320
ag321
ag322
ag273
ag276
ag277
ag278
ag279
ag280
ag393
ag282
ag283
ag284
ag285
ag286
ag394
ag288
ag289
ag290
ag291
ag292
ag395
ag294
ag295
ag296
ag297
ag298
ag396
ag300
ag301
ag302
ag303
ag304
ag397
ag306
ag307
ag308
ag309
ag310
ag398
ag312
ag313
ag314
ag315
ag316
ag399
ag318
ag319
ag320
ag321
ag322
ag273
ag276
ag277
ag278
ag279
ag280
ag393
ag282
ag283
ag284
ag285
ag286
ag394
ag288
ag289
ag290
ag291
ag292
ag395
ag294
ag295
ag296
ag297
ag298
ag396
ag300
ag301
ag302
ag303
ag304
ag397
ag306
ag307
ag308
ag309
ag310
ag398
ag312
ag313
ag314
ag315
ag316
ag399
ag318
ag319
ag320
ag321
ag322
ag273
ag276
ag277
ag278
ag279
ag280
ag393
ag282
ag283
ag284
ag285
ag286
ag394
ag288
ag289
ag290
ag291
ag292
ag395
ag294
ag295
ag296
ag297
ag298
ag396
ag300
ag301
ag302
ag303
ag304
ag397
ag306
ag307
ag308
ag309
ag310
ag398
ag312
ag313
ag314
ag315
ag316
ag399
ag318
ag319
ag320
ag321
ag322
ag273
ag276
ag277
ag278
ag279
ag280
ag393
ag282
ag283
ag284
ag285
ag286
ag394
ag288
ag289
ag290
ag291
ag292
ag395
ag294
ag295
ag296
ag297
ag298
ag396
ag300
ag301
ag302
ag303
ag304
ag397
ag306
ag307
ag308
ag309
ag310
ag398
ag312
ag313
ag314
ag315
ag316
ag399
ag318
ag319
ag320
ag321
ag322
ag273
ag276
ag277
ag278
ag279
ag280
ag393
ag282
ag283
ag284
ag285
ag286
ag394
ag288
ag289
ag290
ag291
ag292
ag395
ag294
ag295
ag296
ag297
ag298
ag396
ag300
ag301
ag302
ag303
ag304
ag397
ag306
ag307
ag308
ag309
ag310
ag398
ag312
ag313
ag314
ag315
ag316
ag399
ag318
ag319
ag320
ag321
ag322
ag273
ag276
ag277
ag278
ag279
ag280
ag393
ag282
ag283
ag284
ag285
ag286
ag394
ag288
ag289
ag290
ag291
ag292
ag395
ag294
ag295
ag296
ag297
ag298
ag396
ag300
ag301
ag302
ag303
ag304
ag397
ag306
ag307
ag308
ag309
ag310
ag398
ag312
ag313
ag314
ag315
ag316
ag399
ag318
ag319
ag320
ag321
ag322
ag273
ag276
ag277
ag278
ag279
ag280
ag393
ag282
ag283
ag284
ag285
ag286
ag394
ag288
ag289
ag290
ag291
ag292
ag395
ag294
ag295
ag296
ag297
ag298
ag396
ag300
ag301
ag302
ag303
ag304
ag397
ag306
ag307
ag308
ag309
ag310
ag398
ag312
ag313
ag314
ag315
ag316
ag399
ag318
ag319
ag320
ag321
ag322
asg6
(lp429
g7
ag8
ag9
ag10
ag11
ag4
ag13
ag14
ag15
ag16
ag17
ag333
ag19
ag20
ag21
ag22
ag23
ag334
ag25
ag26
ag27
ag28
ag29
ag335
ag31
ag32
ag33
ag34
ag35
ag336
ag37
ag38
ag39
ag40
ag41
ag337
ag43
ag44
ag45
ag46
ag47
ag338
ag49
ag50
ag51
ag52
ag53
ag339
ag7
ag8
ag9
ag10
ag11
ag4
ag13
ag14
ag15
ag16
ag17
ag333
ag19
ag20
ag21
ag22
ag23
ag334
ag25
ag26
ag27
ag28
ag29
ag335
ag31
ag32
ag33
ag34
ag35
ag336
ag37
ag38
ag39
ag40
ag41
ag337
ag43
ag44
ag45
ag46
ag47
ag338
ag49
ag50
ag51
ag52
ag53
ag339
ag7
ag8
ag9
ag10
ag11
ag4
ag13
ag14
ag15
ag16
ag17
ag333
ag19
ag20
ag21
ag22
ag23
ag334
ag25
ag26
ag27
ag28
ag29
ag335
ag31
ag32
ag33
ag34
ag35
ag336
ag37
ag38
ag39
ag40
ag41
ag337
ag43
ag44
ag45
ag46
ag47
ag338
ag49
ag50
ag51
ag52
ag53
ag339
ag7
ag8
ag9
ag10
ag11
ag4
ag13
ag14
ag15
ag16
ag17
ag333
ag19
ag20
ag21
ag22
ag23
ag334
ag25
ag26
ag27
ag28
ag29
ag335
ag31
ag32
ag33
ag34
ag35
ag336
ag37
ag38
ag39
ag40
ag41
ag337
ag43
ag44
ag45
ag46
ag47
ag338
ag49
ag50
ag51
ag52
ag53
ag339
ag7
ag8
ag9
ag10
ag11
ag4
ag13
ag14
ag15
ag16
ag17
ag333
ag19
ag20
ag21
ag22
ag23
ag334
ag25
ag26
ag27
ag28
ag29
ag335
ag31
ag32
ag33
ag34
ag35
ag336
ag37
ag38
ag39
ag40
ag41
ag337
ag43
ag44
ag45
ag46
ag47
ag338
ag49
ag50
ag51
ag52
ag53
ag339
ag7
ag8
ag9
ag10
ag11
ag4
ag13
ag14
ag15
ag16
ag17
ag333
ag19
ag20
ag21
ag22
ag23
ag334
ag25
ag26
ag27
ag28
ag29
ag335
ag31
ag32
ag33
ag34
ag35
ag336
ag37
ag38
ag39
ag40
ag41
ag337
ag43
ag44
ag45
ag46
ag47
ag338
ag49
ag50
ag51
ag52
ag53
ag339
ag7
ag8
ag9
ag10
ag11
ag4
ag13
ag14
ag15
ag16
ag17
ag333
ag19
ag20
ag21
ag22
ag23
ag334
ag25
ag26
ag27
ag28
ag29
ag335
ag31
ag32
ag33
ag34
ag35
ag336
ag37
ag38
ag39
ag40
ag41
ag337
ag43
ag44
ag45
ag46
ag47
ag338
ag49
ag50
ag51
ag52
ag53
ag339
ag7
ag8
ag9
ag10
ag11
ag4
ag13
ag14
ag15
ag16
ag17
ag333
ag19
ag20
ag21
ag22
ag23
ag334
ag25
ag26
ag27
ag28
ag29
ag335
ag31
ag32
ag33
ag34
ag35
ag336
ag37
ag38
ag39
ag40
ag41
ag337
ag43
ag44
ag45
ag46
ag47
ag338
ag49
ag50
ag51
ag52
ag53
ag339
asg109
(lp430
g106
ag107
ag104
ag108
ag110
ag111
ag112
ag113
ag205
ag114
ag116
ag117
ag118
ag119
ag206
ag120
ag122
ag123
ag124
ag125
ag207
ag126
ag128
ag129
ag130
ag131
ag208
ag132
ag134
ag135
ag136
ag137
ag209
ag138
ag140
ag141
ag142
ag143
ag210
ag144
ag146
ag147
ag148
ag149
ag211
ag150
ag152
ag153
ag106
ag107
ag104
ag108
ag110
ag111
ag112
ag113
ag205
ag114
ag116
ag117
ag118
ag119
ag206
ag120
ag122
ag123
ag124
ag125
ag207
ag126
ag128
ag129
ag130
ag131
ag208
ag132
ag134
ag135
ag136
ag137
ag209
ag138
ag140
ag141
ag142
ag143
ag210
ag144
ag146
ag147
ag148
ag149
ag211
ag150
ag152
ag153
ag106
ag107
ag104
ag108
ag110
ag111
ag112
ag113
ag205
ag114
ag116
ag117
ag118
ag119
ag206
ag120
ag122
ag123
ag124
ag125
ag207
ag126
ag128
ag129
ag130
ag131
ag208
ag132
ag134
ag135
ag136
ag137
ag209
ag138
ag140
ag141
ag142
ag143
ag210
ag144
ag146
ag147
ag148
ag149
ag211
ag150
ag152
ag153
ag106
ag107
ag104
ag108
ag110
ag111
ag112
ag113
ag205
ag114
ag116
ag117
ag118
ag119
ag206
ag120
ag122
ag123
ag124
ag125
ag207
ag126
ag128
ag129
ag130
ag131
ag208
ag132
ag134
ag135
ag136
ag137
ag209
ag138
ag140
ag141
ag142
ag143
ag210
ag144
ag146
ag147
ag148
ag149
ag211
ag150
ag152
ag153
ag106
ag107
ag104
ag108
ag110
ag111
ag112
ag113
ag205
ag114
ag116
ag117
ag118
ag119
ag206
ag120
ag122
ag123
ag124
ag125
ag207
ag126
ag128
ag129
ag130
ag131
ag208
ag132
ag134
ag135
ag136
ag137
ag209
ag138
ag140
ag141
ag142
ag143
ag210
ag144
ag146
ag147
ag148
ag149
ag211
ag150
ag152
ag153
ag106
ag107
ag104
ag108
ag110
ag111
ag112
ag113
ag205
ag114
ag116
ag117
ag118
ag119
ag206
ag120
ag122
ag123
ag124
ag125
ag207
ag126
ag128
ag129
ag130
ag131
ag208
ag132
ag134
ag135
ag136
ag137
ag209
ag138
ag140
ag141
ag142
ag143
ag210
ag144
ag146
ag147
ag148
ag149
ag211
ag150
ag152
ag153
ag106
ag107
ag104
ag108
ag110
ag111
ag112
ag113
ag205
ag114
ag116
ag117
ag118
ag119
ag206
ag120
ag122
ag123
ag124
ag125
ag207
ag126
ag128
ag129
ag130
ag131
ag208
ag132
ag134
ag135
ag136
ag137
ag209
ag138
ag140
ag141
ag142
ag143
ag210
ag144
ag146
ag147
ag148
ag149
ag211
ag150
ag152
ag153
ag106
ag107
ag104
ag108
ag110
ag111
ag112
ag113
ag205
ag114
ag116
ag117
ag118
ag119
ag206
ag120
ag122
ag123
ag124
ag125
ag207
ag126
ag128
ag129
ag130
ag131
ag208
ag132
ag134
ag135
ag136
ag137
ag209
ag138
ag140
ag141
ag142
ag143
ag210
ag144
ag146
ag147
ag148
ag149
ag211
ag150
ag152
ag153
asg9
(lp431
g6
ag7
ag8
ag10
ag11
ag4
ag12
ag13
ag14
ag16
ag17
ag333
ag18
ag19
ag20
ag22
ag23
ag334
ag24
ag25
ag26
ag28
ag29
ag335
ag30
ag31
ag32
ag34
ag35
ag336
ag36
ag37
ag38
ag40
ag41
ag337
ag42
ag43
ag44
ag46
ag47
ag338
ag48
ag49
ag50
ag52
ag53
ag339
ag6
ag7
ag8
ag10
ag11
ag4
ag12
ag13
ag14
ag16
ag17
ag333
ag18
ag19
ag20
ag22
ag23
ag334
ag24
ag25
ag26
ag28
ag29
ag335
ag30
ag31
ag32
ag34
ag35
ag336
ag36
ag37
ag38
ag40
ag41
ag337
ag42
ag43
ag44
ag46
ag47
ag338
ag48
ag49
ag50
ag52
ag53
ag339
ag6
ag7
ag8
ag10
ag11
ag4
ag12
ag13
ag14
ag16
ag17
ag333
ag18
ag19
ag20
ag22
ag23
ag334
ag24
ag25
ag26
ag28
ag29
ag335
ag30
ag31
ag32
ag34
ag35
ag336
ag36
ag37
ag38
ag40
ag41
ag337
ag42
ag43
ag44
ag46
ag47
ag338
ag48
ag49
ag50
ag52
ag53
ag339
ag6
ag7
ag8
ag10
ag11
ag4
ag12
ag13
ag14
ag16
ag17
ag333
ag18
ag19
ag20
ag22
ag23
ag334
ag24
ag25
ag26
ag28
ag29
ag335
ag30
ag31
ag32
ag34
ag35
ag336
ag36
ag37
ag38
ag40
ag41
ag337
ag42
ag43
ag44
ag46
ag47
ag338
ag48
ag49
ag50
ag52
ag53
ag339
ag6
ag7
ag8
ag10
ag11
ag4
ag12
ag13
ag14
ag16
ag17
ag333
ag18
ag19
ag20
ag22
ag23
ag334
ag24
ag25
ag26
ag28
ag29
ag335
ag30
ag31
ag32
ag34
ag35
ag336
ag36
ag37
ag38
ag40
ag41
ag337
ag42
ag43
ag44
ag46
ag47
ag338
ag48
ag49
ag50
ag52
ag53
ag339
ag6
ag7
ag8
ag10
ag11
ag4
ag12
ag13
ag14
ag16
ag17
ag333
ag18
ag19
ag20
ag22
ag23
ag334
ag24
ag25
ag26
ag28
ag29
ag335
ag30
ag31
ag32
ag34
ag35
ag336
ag36
ag37
ag38
ag40
ag41
ag337
ag42
ag43
ag44
ag46
ag47
ag338
ag48
ag49
ag50
ag52
ag53
ag339
ag6
ag7
ag8
ag10
ag11
ag4
ag12
ag13
ag14
ag16
ag17
ag333
ag18
ag19
ag20
ag22
ag23
ag334
ag24
ag25
ag26
ag28
ag29
ag335
ag30
ag31
ag32
ag34
ag35
ag336
ag36
ag37
ag38
ag40
ag41
ag337
ag42
ag43
ag44
ag46
ag47
ag338
ag48
ag49
ag50
ag52
ag53
ag339
ag6
ag7
ag8
ag10
ag11
ag4
ag12
ag13
ag14
ag16
ag17
ag333
ag18
ag19
ag20
ag22
ag23
ag334
ag24
ag25
ag26
ag28
ag29
ag335
ag30
ag31
ag32
ag34
ag35
ag336
ag36
ag37
ag38
ag40
ag41
ag337
ag42
ag43
ag44
ag46
ag47
ag338
ag48
ag49
ag50
ag52
ag53
ag339
asg10
(lp432
g6
ag7
ag8
ag9
ag11
ag4
ag12
ag13
ag14
ag15
ag17
ag333
ag18
ag19
ag20
ag21
ag23
ag334
ag24
ag25
ag26
ag27
ag29
ag335
ag30
ag31
ag32
ag33
ag35
ag336
ag36
ag37
ag38
ag39
ag41
ag337
ag42
ag43
ag44
ag45
ag47
ag338
ag48
ag49
ag50
ag51
ag53
ag339
ag6
ag7
ag8
ag9
ag11
ag4
ag12
ag13
ag14
ag15
ag17
ag333
ag18
ag19
ag20
ag21
ag23
ag334
ag24
ag25
ag26
ag27
ag29
ag335
ag30
ag31
ag32
ag33
ag35
ag336
ag36
ag37
ag38
ag39
ag41
ag337
ag42
ag43
ag44
ag45
ag47
ag338
ag48
ag49
ag50
ag51
ag53
ag339
ag6
ag7
ag8
ag9
ag11
ag4
ag12
ag13
ag14
ag15
ag17
ag333
ag18
ag19
ag20
ag21
ag23
ag334
ag24
ag25
ag26
ag27
ag29
ag335
ag30
ag31
ag32
ag33
ag35
ag336
ag36
ag37
ag38
ag39
ag41
ag337
ag42
ag43
ag44
ag45
ag47
ag338
ag48
ag49
ag50
ag51
ag53
ag339
ag6
ag7
ag8
ag9
ag11
ag4
ag12
ag13
ag14
ag15
ag17
ag333
ag18
ag19
ag20
ag21
ag23
ag334
ag24
ag25
ag26
ag27
ag29
ag335
ag30
ag31
ag32
ag33
ag35
ag336
ag36
ag37
ag38
ag39
ag41
ag337
ag42
ag43
ag44
ag45
ag47
ag338
ag48
ag49
ag50
ag51
ag53
ag339
ag6
ag7
ag8
ag9
ag11
ag4
ag12
ag13
ag14
ag15
ag17
ag333
ag18
ag19
ag20
ag21
ag23
ag334
ag24
ag25
ag26
ag27
ag29
ag335
ag30
ag31
ag32
ag33
ag35
ag336
ag36
ag37
ag38
ag39
ag41
ag337
ag42
ag43
ag44
ag45
ag47
ag338
ag48
ag49
ag50
ag51
ag53
ag339
ag6
ag7
ag8
ag9
ag11
ag4
ag12
ag13
ag14
ag15
ag17
ag333
ag18
ag19
ag20
ag21
ag23
ag334
ag24
ag25
ag26
ag27
ag29
ag335
ag30
ag31
ag32
ag33
ag35
ag336
ag36
ag37
ag38
ag39
ag41
ag337
ag42
ag43
ag44
ag45
ag47
ag338
ag48
ag49
ag50
ag51
ag53
ag339
ag6
ag7
ag8
ag9
ag11
ag4
ag12
ag13
ag14
ag15
ag17
ag333
ag18
ag19
ag20
ag21
ag23
ag334
ag24
ag25
ag26
ag27
ag29
ag335
ag30
ag31
ag32
ag33
ag35
ag336
ag36
ag37
ag38
ag39
ag41
ag337
ag42
ag43
ag44
ag45
ag47
ag338
ag48
ag49
ag50
ag51
ag53
ag339
ag6
ag7
ag8
ag9
ag11
ag4
ag12
ag13
ag14
ag15
ag17
ag333
ag18
ag19
ag20
ag21
ag23
ag334
ag24
ag25
ag26
ag27
ag29
ag335
ag30
ag31
ag32
ag33
ag35
ag336
ag36
ag37
ag38
ag39
ag41
ag337
ag42
ag43
ag44
ag45
ag47
ag338
ag48
ag49
ag50
ag51
ag53
ag339
asg343
(lp433
g344
ag345
ag346
ag347
ag341
ag348
ag350
ag351
ag352
ag353
ag413
ag354
ag356
ag357
ag358
ag359
ag414
ag360
ag362
ag363
ag364
ag365
ag415
ag366
ag368
ag369
ag370
ag371
ag416
ag372
ag374
ag375
ag376
ag377
ag417
ag378
ag380
ag381
ag382
ag383
ag418
ag384
ag386
ag387
ag388
ag389
ag419
ag390
ag344
ag345
ag346
ag347
ag341
ag348
ag350
ag351
ag352
ag353
ag413
ag354
ag356
ag357
ag358
ag359
ag414
ag360
ag362
ag363
ag364
ag365
ag415
ag366
ag368
ag369
ag370
ag371
ag416
ag372
ag374
ag375
ag376
ag377
ag417
ag378
ag380
ag381
ag382
ag383
ag418
ag384
ag386
ag387
ag388
ag389
ag419
ag390
ag344
ag345
ag346
ag347
ag341
ag348
ag350
ag351
ag352
ag353
ag413
ag354
ag356
ag357
ag358
ag359
ag414
ag360
ag362
ag363
ag364
ag365
ag415
ag366
ag368
ag369
ag370
ag371
ag416
ag372
ag374
ag375
ag376
ag377
ag417
ag378
ag380
ag381
ag382
ag383
ag418
ag384
ag386
ag387
ag388
ag389
ag419
ag390
ag344
ag345
ag346
ag347
ag341
ag348
ag350
ag351
ag352
ag353
ag413
ag354
ag356
ag357
ag358
ag359
ag414
ag360
ag362
ag363
ag364
ag365
ag415
ag366
ag368
ag369
ag370
ag371
ag416
ag372
ag374
ag375
ag376
ag377
ag417
ag378
ag380
ag381
ag382
ag383
ag418
ag384
ag386
ag387
ag388
ag389
ag419
ag390
ag344
ag345
ag346
ag347
ag341
ag348
ag350
ag351
ag352
ag353
ag413
ag354
ag356
ag357
ag358
ag359
ag414
ag360
ag362
ag363
ag364
ag365
ag415
ag366
ag368
ag369
ag370
ag371
ag416
ag372
ag374
ag375
ag376
ag377
ag417
ag378
ag380
ag381
ag382
ag383
ag418
ag384
ag386
ag387
ag388
ag389
ag419
ag390
ag344
ag345
ag346
ag347
ag341
ag348
ag350
ag351
ag352
ag353
ag413
ag354
ag356
ag357
ag358
ag359
ag414
ag360
ag362
ag363
ag364
ag365
ag415
ag366
ag368
ag369
ag370
ag371
ag416
ag372
ag374
ag375
ag376
ag377
ag417
ag378
ag380
ag381
ag382
ag383
ag418
ag384
ag386
ag387
ag388
ag389
ag419
ag390
ag344
ag345
ag346
ag347
ag341
ag348
ag350
ag351
ag352
ag353
ag413
ag354
ag356
ag357
ag358
ag359
ag414
ag360
ag362
ag363
ag364
ag365
ag415
ag366
ag368
ag369
ag370
ag371
ag416
ag372
ag374
ag375
ag376
ag377
ag417
ag378
ag380
ag381
ag382
ag383
ag418
ag384
ag386
ag387
ag388
ag389
ag419
ag390
ag344
ag345
ag346
ag347
ag341
ag348
ag350
ag351
ag352
ag353
ag413
ag354
ag356
ag357
ag358
ag359
ag414
ag360
ag362
ag363
ag364
ag365
ag415
ag366
ag368
ag369
ag370
ag371
ag416
ag372
ag374
ag375
ag376
ag377
ag417
ag378
ag380
ag381
ag382
ag383
ag418
ag384
ag386
ag387
ag388
ag389
ag419
ag390
asg107
(lp434
g106
ag104
ag108
ag109
ag110
ag111
ag112
ag205
ag114
ag115
ag116
ag117
ag118
ag206
ag120
ag121
ag122
ag123
ag124
ag207
ag126
ag127
ag128
ag129
ag130
ag208
ag132
ag133
ag134
ag135
ag136
ag209
ag138
ag139
ag140
ag141
ag142
ag210
ag144
ag145
ag146
ag147
ag148
ag211
ag150
ag151
ag152
ag153
ag106
ag104
ag108
ag109
ag110
ag111
ag112
ag205
ag114
ag115
ag116
ag117
ag118
ag206
ag120
ag121
ag122
ag123
ag124
ag207
ag126
ag127
ag128
ag129
ag130
ag208
ag132
ag133
ag134
ag135
ag136
ag209
ag138
ag139
ag140
ag141
ag142
ag210
ag144
ag145
ag146
ag147
ag148
ag211
ag150
ag151
ag152
ag153
ag106
ag104
ag108
ag109
ag110
ag111
ag112
ag205
ag114
ag115
ag116
ag117
ag118
ag206
ag120
ag121
ag122
ag123
ag124
ag207
ag126
ag127
ag128
ag129
ag130
ag208
ag132
ag133
ag134
ag135
ag136
ag209
ag138
ag139
ag140
ag141
ag142
ag210
ag144
ag145
ag146
ag147
ag148
ag211
ag150
ag151
ag152
ag153
ag106
ag104
ag108
ag109
ag110
ag111
ag112
ag205
ag114
ag115
ag116
ag117
ag118
ag206
ag120
ag121
ag122
ag123
ag124
ag207
ag126
ag127
ag128
ag129
ag130
ag208
ag132
ag133
ag134
ag135
ag136
ag209
ag138
ag139
ag140
ag141
ag142
ag210
ag144
ag145
ag146
ag147
ag148
ag211
ag150
ag151
ag152
ag153
ag106
ag104
ag108
ag109
ag110
ag111
ag112
ag205
ag114
ag115
ag116
ag117
ag118
ag206
ag120
ag121
ag122
ag123
ag124
ag207
ag126
ag127
ag128
ag129
ag130
ag208
ag132
ag133
ag134
ag135
ag136
ag209
ag138
ag139
ag140
ag141
ag142
ag210
ag144
ag145
ag146
ag147
ag148
ag211
ag150
ag151
ag152
ag153
ag106
ag104
ag108
ag109
ag110
ag111
ag112
ag205
ag114
ag115
ag116
ag117
ag118
ag206
ag120
ag121
ag122
ag123
ag124
ag207
ag126
ag127
ag128
ag129
ag130
ag208
ag132
ag133
ag134
ag135
ag136
ag209
ag138
ag139
ag140
ag141
ag142
ag210
ag144
ag145
ag146
ag147
ag148
ag211
ag150
ag151
ag152
ag153
ag106
ag104
ag108
ag109
ag110
ag111
ag112
ag205
ag114
ag115
ag116
ag117
ag118
ag206
ag120
ag121
ag122
ag123
ag124
ag207
ag126
ag127
ag128
ag129
ag130
ag208
ag132
ag133
ag134
ag135
ag136
ag209
ag138
ag139
ag140
ag141
ag142
ag210
ag144
ag145
ag146
ag147
ag148
ag211
ag150
ag151
ag152
ag153
ag106
ag104
ag108
ag109
ag110
ag111
ag112
ag205
ag114
ag115
ag116
ag117
ag118
ag206
ag120
ag121
ag122
ag123
ag124
ag207
ag126
ag127
ag128
ag129
ag130
ag208
ag132
ag133
ag134
ag135
ag136
ag209
ag138
ag139
ag140
ag141
ag142
ag210
ag144
ag145
ag146
ag147
ag148
ag211
ag150
ag151
ag152
ag153
asg224
(lp435
g223
ag225
ag221
ag226
ag227
ag228
ag229
ag231
ag325
ag232
ag233
ag234
ag235
ag237
ag326
ag238
ag239
ag240
ag241
ag243
ag327
ag244
ag245
ag246
ag247
ag249
ag328
ag250
ag251
ag252
ag253
ag255
ag329
ag256
ag257
ag258
ag259
ag261
ag330
ag262
ag263
ag264
ag265
ag267
ag331
ag268
ag269
ag270
ag223
ag225
ag221
ag226
ag227
ag228
ag229
ag231
ag325
ag232
ag233
ag234
ag235
ag237
ag326
ag238
ag239
ag240
ag241
ag243
ag327
ag244
ag245
ag246
ag247
ag249
ag328
ag250
ag251
ag252
ag253
ag255
ag329
ag256
ag257
ag258
ag259
ag261
ag330
ag262
ag263
ag264
ag265
ag267
ag331
ag268
ag269
ag270
ag223
ag225
ag221
ag226
ag227
ag228
ag229
ag231
ag325
ag232
ag233
ag234
ag235
ag237
ag326
ag238
ag239
ag240
ag241
ag243
ag327
ag244
ag245
ag246
ag247
ag249
ag328
ag250
ag251
ag252
ag253
ag255
ag329
ag256
ag257
ag258
ag259
ag261
ag330
ag262
ag263
ag264
ag265
ag267
ag331
ag268
ag269
ag270
ag223
ag225
ag221
ag226
ag227
ag228
ag229
ag231
ag325
ag232
ag233
ag234
ag235
ag237
ag326
ag238
ag239
ag240
ag241
ag243
ag327
ag244
ag245
ag246
ag247
ag249
ag328
ag250
ag251
ag252
ag253
ag255
ag329
ag256
ag257
ag258
ag259
ag261
ag330
ag262
ag263
ag264
ag265
ag267
ag331
ag268
ag269
ag270
ag223
ag225
ag221
ag226
ag227
ag228
ag229
ag231
ag325
ag232
ag233
ag234
ag235
ag237
ag326
ag238
ag239
ag240
ag241
ag243
ag327
ag244
ag245
ag246
ag247
ag249
ag328
ag250
ag251
ag252
ag253
ag255
ag329
ag256
ag257
ag258
ag259
ag261
ag330
ag262
ag263
ag264
ag265
ag267
ag331
ag268
ag269
ag270
ag223
ag225
ag221
ag226
ag227
ag228
ag229
ag231
ag325
ag232
ag233
ag234
ag235
ag237
ag326
ag238
ag239
ag240
ag241
ag243
ag327
ag244
ag245
ag246
ag247
ag249
ag328
ag250
ag251
ag252
ag253
ag255
ag329
ag256
ag257
ag258
ag259
ag261
ag330
ag262
ag263
ag264
ag265
ag267
ag331
ag268
ag269
ag270
ag223
ag225
ag221
ag226
ag227
ag228
ag229
ag231
ag325
ag232
ag233
ag234
ag235
ag237
ag326
ag238
ag239
ag240
ag241
ag243
ag327
ag244
ag245
ag246
ag247
ag249
ag328
ag250
ag251
ag252
ag253
ag255
ag329
ag256
ag257
ag258
ag259
ag261
ag330
ag262
ag263
ag264
ag265
ag267
ag331
ag268
ag269
ag270
ag223
ag225
ag221
ag226
ag227
ag228
ag229
ag231
ag325
ag232
ag233
ag234
ag235
ag237
ag326
ag238
ag239
ag240
ag241
ag243
ag327
ag244
ag245
ag246
ag247
ag249
ag328
ag250
ag251
ag252
ag253
ag255
ag329
ag256
ag257
ag258
ag259
ag261
ag330
ag262
ag263
ag264
ag265
ag267
ag331
ag268
ag269
ag270
asg344
(lp436
g343
ag345
ag346
ag347
ag341
ag348
ag349
ag351
ag352
ag353
ag413
ag354
ag355
ag357
ag358
ag359
ag414
ag360
ag361
ag363
ag364
ag365
ag415
ag366
ag367
ag369
ag370
ag371
ag416
ag372
ag373
ag375
ag376
ag377
ag417
ag378
ag379
ag381
ag382
ag383
ag418
ag384
ag385
ag387
ag388
ag389
ag419
ag390
ag343
ag345
ag346
ag347
ag341
ag348
ag349
ag351
ag352
ag353
ag413
ag354
ag355
ag357
ag358
ag359
ag414
ag360
ag361
ag363
ag364
ag365
ag415
ag366
ag367
ag369
ag370
ag371
ag416
ag372
ag373
ag375
ag376
ag377
ag417
ag378
ag379
ag381
ag382
ag383
ag418
ag384
ag385
ag387
ag388
ag389
ag419
ag390
ag343
ag345
ag346
ag347
ag341
ag348
ag349
ag351
ag352
ag353
ag413
ag354
ag355
ag357
ag358
ag359
ag414
ag360
ag361
ag363
ag364
ag365
ag415
ag366
ag367
ag369
ag370
ag371
ag416
ag372
ag373
ag375
ag376
ag377
ag417
ag378
ag379
ag381
ag382
ag383
ag418
ag384
ag385
ag387
ag388
ag389
ag419
ag390
ag343
ag345
ag346
ag347
ag341
ag348
ag349
ag351
ag352
ag353
ag413
ag354
ag355
ag357
ag358
ag359
ag414
ag360
ag361
ag363
ag364
ag365
ag415
ag366
ag367
ag369
ag370
ag371
ag416
ag372
ag373
ag375
ag376
ag377
ag417
ag378
ag379
ag381
ag382
ag383
ag418
ag384
ag385
ag387
ag388
ag389
ag419
ag390
ag343
ag345
ag346
ag347
ag341
ag348
ag349
ag351
ag352
ag353
ag413
ag354
ag355
ag357
ag358
ag359
ag414
ag360
ag361
ag363
ag364
ag365
ag415
ag366
ag367
ag369
ag370
ag371
ag416
ag372
ag373
ag375
ag376
ag377
ag417
ag378
ag379
ag381
ag382
ag383
ag418
ag384
ag385
ag387
ag388
ag389
ag419
ag390
ag343
ag345
ag346
ag347
ag341
ag348
ag349
ag351
ag352
ag353
ag413
ag354
ag355
ag357
ag358
ag359
ag414
ag360
ag361
ag363
ag364
ag365
ag415
ag366
ag367
ag369
ag370
ag371
ag416
ag372
ag373
ag375
ag376
ag377
ag417
ag378
ag379
ag381
ag382
ag383
ag418
ag384
ag385
ag387
ag388
ag389
ag419
ag390
ag343
ag345
ag346
ag347
ag341
ag348
ag349
ag351
ag352
ag353
ag413
ag354
ag355
ag357
ag358
ag359
ag414
ag360
ag361
ag363
ag364
ag365
ag415
ag366
ag367
ag369
ag370
ag371
ag416
ag372
ag373
ag375
ag376
ag377
ag417
ag378
ag379
ag381
ag382
ag383
ag418
ag384
ag385
ag387
ag388
ag389
ag419
ag390
ag343
ag345
ag346
ag347
ag341
ag348
ag349
ag351
ag352
ag353
ag413
ag354
ag355
ag357
ag358
ag359
ag414
ag360
ag361
ag363
ag364
ag365
ag415
ag366
ag367
ag369
ag370
ag371
ag416
ag372
ag373
ag375
ag376
ag377
ag417
ag378
ag379
ag381
ag382
ag383
ag418
ag384
ag385
ag387
ag388
ag389
ag419
ag390
asg280
(lp437
g273
ag275
ag276
ag277
ag278
ag279
ag393
ag281
ag282
ag283
ag284
ag285
ag394
ag287
ag288
ag289
ag290
ag291
ag395
ag293
ag294
ag295
ag296
ag297
ag396
ag299
ag300
ag301
ag302
ag303
ag397
ag305
ag306
ag307
ag308
ag309
ag398
ag311
ag312
ag313
ag314
ag315
ag399
ag317
ag318
ag319
ag320
ag321
ag273
ag275
ag276
ag277
ag278
ag279
ag393
ag281
ag282
ag283
ag284
ag285
ag394
ag287
ag288
ag289
ag290
ag291
ag395
ag293
ag294
ag295
ag296
ag297
ag396
ag299
ag300
ag301
ag302
ag303
ag397
ag305
ag306
ag307
ag308
ag309
ag398
ag311
ag312
ag313
ag314
ag315
ag399
ag317
ag318
ag319
ag320
ag321
ag273
ag275
ag276
ag277
ag278
ag279
ag393
ag281
ag282
ag283
ag284
ag285
ag394
ag287
ag288
ag289
ag290
ag291
ag395
ag293
ag294
ag295
ag296
ag297
ag396
ag299
ag300
ag301
ag302
ag303
ag397
ag305
ag306
ag307
ag308
ag309
ag398
ag311
ag312
ag313
ag314
ag315
ag399
ag317
ag318
ag319
ag320
ag321
ag273
ag275
ag276
ag277
ag278
ag279
ag393
ag281
ag282
ag283
ag284
ag285
ag394
ag287
ag288
ag289
ag290
ag291
ag395
ag293
ag294
ag295
ag296
ag297
ag396
ag299
ag300
ag301
ag302
ag303
ag397
ag305
ag306
ag307
ag308
ag309
ag398
ag311
ag312
ag313
ag314
ag315
ag399
ag317
ag318
ag319
ag320
ag321
ag273
ag275
ag276
ag277
ag278
ag279
ag393
ag281
ag282
ag283
ag284
ag285
ag394
ag287
ag288
ag289
ag290
ag291
ag395
ag293
ag294
ag295
ag296
ag297
ag396
ag299
ag300
ag301
ag302
ag303
ag397
ag305
ag306
ag307
ag308
ag309
ag398
ag311
ag312
ag313
ag314
ag315
ag399
ag317
ag318
ag319
ag320
ag321
ag273
ag275
ag276
ag277
ag278
ag279
ag393
ag281
ag282
ag283
ag284
ag285
ag394
ag287
ag288
ag289
ag290
ag291
ag395
ag293
ag294
ag295
ag296
ag297
ag396
ag299
ag300
ag301
ag302
ag303
ag397
ag305
ag306
ag307
ag308
ag309
ag398
ag311
ag312
ag313
ag314
ag315
ag399
ag317
ag318
ag319
ag320
ag321
ag273
ag275
ag276
ag277
ag278
ag279
ag393
ag281
ag282
ag283
ag284
ag285
ag394
ag287
ag288
ag289
ag290
ag291
ag395
ag293
ag294
ag295
ag296
ag297
ag396
ag299
ag300
ag301
ag302
ag303
ag397
ag305
ag306
ag307
ag308
ag309
ag398
ag311
ag312
ag313
ag314
ag315
ag399
ag317
ag318
ag319
ag320
ag321
ag273
ag275
ag276
ag277
ag278
ag279
ag393
ag281
ag282
ag283
ag284
ag285
ag394
ag287
ag288
ag289
ag290
ag291
ag395
ag293
ag294
ag295
ag296
ag297
ag396
ag299
ag300
ag301
ag302
ag303
ag397
ag305
ag306
ag307
ag308
ag309
ag398
ag311
ag312
ag313
ag314
ag315
ag399
ag317
ag318
ag319
ag320
ag321
asg158
(lp438
g154
ag156
ag157
ag159
ag160
ag161
ag213
ag162
ag163
ag165
ag166
ag167
ag214
ag168
ag169
ag171
ag172
ag173
ag215
ag174
ag175
ag177
ag178
ag179
ag216
ag180
ag181
ag183
ag184
ag185
ag217
ag186
ag187
ag189
ag190
ag191
ag218
ag192
ag193
ag195
ag196
ag197
ag219
ag198
ag199
ag201
ag202
ag203
ag154
ag156
ag157
ag159
ag160
ag161
ag213
ag162
ag163
ag165
ag166
ag167
ag214
ag168
ag169
ag171
ag172
ag173
ag215
ag174
ag175
ag177
ag178
ag179
ag216
ag180
ag181
ag183
ag184
ag185
ag217
ag186
ag187
ag189
ag190
ag191
ag218
ag192
ag193
ag195
ag196
ag197
ag219
ag198
ag199
ag201
ag202
ag203
ag154
ag156
ag157
ag159
ag160
ag161
ag213
ag162
ag163
ag165
ag166
ag167
ag214
ag168
ag169
ag171
ag172
ag173
ag215
ag174
ag175
ag177
ag178
ag179
ag216
ag180
ag181
ag183
ag184
ag185
ag217
ag186
ag187
ag189
ag190
ag191
ag218
ag192
ag193
ag195
ag196
ag197
ag219
ag198
ag199
ag201
ag202
ag203
ag154
ag156
ag157
ag159
ag160
ag161
ag213
ag162
ag163
ag165
ag166
ag167
ag214
ag168
ag169
ag171
ag172
ag173
ag215
ag174
ag175
ag177
ag178
ag179
ag216
ag180
ag181
ag183
ag184
ag185
ag217
ag186
ag187
ag189
ag190
ag191
ag218
ag192
ag193
ag195
ag196
ag197
ag219
ag198
ag199
ag201
ag202
ag203
ag154
ag156
ag157
ag159
ag160
ag161
ag213
ag162
ag163
ag165
ag166
ag167
ag214
ag168
ag169
ag171
ag172
ag173
ag215
ag174
ag175
ag177
ag178
ag179
ag216
ag180
ag181
ag183
ag184
ag185
ag217
ag186
ag187
ag189
ag190
ag191
ag218
ag192
ag193
ag195
ag196
ag197
ag219
ag198
ag199
ag201
ag202
ag203
ag154
ag156
ag157
ag159
ag160
ag161
ag213
ag162
ag163
ag165
ag166
ag167
ag214
ag168
ag169
ag171
ag172
ag173
ag215
ag174
ag175
ag177
ag178
ag179
ag216
ag180
ag181
ag183
ag184
ag185
ag217
ag186
ag187
ag189
ag190
ag191
ag218
ag192
ag193
ag195
ag196
ag197
ag219
ag198
ag199
ag201
ag202
ag203
ag154
ag156
ag157
ag159
ag160
ag161
ag213
ag162
ag163
ag165
ag166
ag167
ag214
ag168
ag169
ag171
ag172
ag173
ag215
ag174
ag175
ag177
ag178
ag179
ag216
ag180
ag181
ag183
ag184
ag185
ag217
ag186
ag187
ag189
ag190
ag191
ag218
ag192
ag193
ag195
ag196
ag197
ag219
ag198
ag199
ag201
ag202
ag203
ag154
ag156
ag157
ag159
ag160
ag161
ag213
ag162
ag163
ag165
ag166
ag167
ag214
ag168
ag169
ag171
ag172
ag173
ag215
ag174
ag175
ag177
ag178
ag179
ag216
ag180
ag181
ag183
ag184
ag185
ag217
ag186
ag187
ag189
ag190
ag191
ag218
ag192
ag193
ag195
ag196
ag197
ag219
ag198
ag199
ag201
ag202
ag203
asg160
(lp439
g154
ag156
ag157
ag158
ag159
ag161
ag213
ag162
ag163
ag164
ag165
ag167
ag214
ag168
ag169
ag170
ag171
ag173
ag215
ag174
ag175
ag176
ag177
ag179
ag216
ag180
ag181
ag182
ag183
ag185
ag217
ag186
ag187
ag188
ag189
ag191
ag218
ag192
ag193
ag194
ag195
ag197
ag219
ag198
ag199
ag200
ag201
ag203
ag154
ag156
ag157
ag158
ag159
ag161
ag213
ag162
ag163
ag164
ag165
ag167
ag214
ag168
ag169
ag170
ag171
ag173
ag215
ag174
ag175
ag176
ag177
ag179
ag216
ag180
ag181
ag182
ag183
ag185
ag217
ag186
ag187
ag188
ag189
ag191
ag218
ag192
ag193
ag194
ag195
ag197
ag219
ag198
ag199
ag200
ag201
ag203
ag154
ag156
ag157
ag158
ag159
ag161
ag213
ag162
ag163
ag164
ag165
ag167
ag214
ag168
ag169
ag170
ag171
ag173
ag215
ag174
ag175
ag176
ag177
ag179
ag216
ag180
ag181
ag182
ag183
ag185
ag217
ag186
ag187
ag188
ag189
ag191
ag218
ag192
ag193
ag194
ag195
ag197
ag219
ag198
ag199
ag200
ag201
ag203
ag154
ag156
ag157
ag158
ag159
ag161
ag213
ag162
ag163
ag164
ag165
ag167
ag214
ag168
ag169
ag170
ag171
ag173
ag215
ag174
ag175
ag176
ag177
ag179
ag216
ag180
ag181
ag182
ag183
ag185
ag217
ag186
ag187
ag188
ag189
ag191
ag218
ag192
ag193
ag194
ag195
ag197
ag219
ag198
ag199
ag200
ag201
ag203
ag154
ag156
ag157
ag158
ag159
ag161
ag213
ag162
ag163
ag164
ag165
ag167
ag214
ag168
ag169
ag170
ag171
ag173
ag215
ag174
ag175
ag176
ag177
ag179
ag216
ag180
ag181
ag182
ag183
ag185
ag217
ag186
ag187
ag188
ag189
ag191
ag218
ag192
ag193
ag194
ag195
ag197
ag219
ag198
ag199
ag200
ag201
ag203
ag154
ag156
ag157
ag158
ag159
ag161
ag213
ag162
ag163
ag164
ag165
ag167
ag214
ag168
ag169
ag170
ag171
ag173
ag215
ag174
ag175
ag176
ag177
ag179
ag216
ag180
ag181
ag182
ag183
ag185
ag217
ag186
ag187
ag188
ag189
ag191
ag218
ag192
ag193
ag194
ag195
ag197
ag219
ag198
ag199
ag200
ag201
ag203
ag154
ag156
ag157
ag158
ag159
ag161
ag213
ag162
ag163
ag164
ag165
ag167
ag214
ag168
ag169
ag170
ag171
ag173
ag215
ag174
ag175
ag176
ag177
ag179
ag216
ag180
ag181
ag182
ag183
ag185
ag217
ag186
ag187
ag188
ag189
ag191
ag218
ag192
ag193
ag194
ag195
ag197
ag219
ag198
ag199
ag200
ag201
ag203
ag154
ag156
ag157
ag158
ag159
ag161
ag213
ag162
ag163
ag164
ag165
ag167
ag214
ag168
ag169
ag170
ag171
ag173
ag215
ag174
ag175
ag176
ag177
ag179
ag216
ag180
ag181
ag182
ag183
ag185
ag217
ag186
ag187
ag188
ag189
ag191
ag218
ag192
ag193
ag194
ag195
ag197
ag219
ag198
ag199
ag200
ag201
ag203
asg226
(lp440
g223
ag224
ag225
ag221
ag227
ag228
ag229
ag230
ag231
ag325
ag233
ag234
ag235
ag236
ag237
ag326
ag239
ag240
ag241
ag242
ag243
ag327
ag245
ag246
ag247
ag248
ag249
ag328
ag251
ag252
ag253
ag254
ag255
ag329
ag257
ag258
ag259
ag260
ag261
ag330
ag263
ag264
ag265
ag266
ag267
ag331
ag269
ag270
ag223
ag224
ag225
ag221
ag227
ag228
ag229
ag230
ag231
ag325
ag233
ag234
ag235
ag236
ag237
ag326
ag239
ag240
ag241
ag242
ag243
ag327
ag245
ag246
ag247
ag248
ag249
ag328
ag251
ag252
ag253
ag254
ag255
ag329
ag257
ag258
ag259
ag260
ag261
ag330
ag263
ag264
ag265
ag266
ag267
ag331
ag269
ag270
ag223
ag224
ag225
ag221
ag227
ag228
ag229
ag230
ag231
ag325
ag233
ag234
ag235
ag236
ag237
ag326
ag239
ag240
ag241
ag242
ag243
ag327
ag245
ag246
ag247
ag248
ag249
ag328
ag251
ag252
ag253
ag254
ag255
ag329
ag257
ag258
ag259
ag260
ag261
ag330
ag263
ag264
ag265
ag266
ag267
ag331
ag269
ag270
ag223
ag224
ag225
ag221
ag227
ag228
ag229
ag230
ag231
ag325
ag233
ag234
ag235
ag236
ag237
ag326
ag239
ag240
ag241
ag242
ag243
ag327
ag245
ag246
ag247
ag248
ag249
ag328
ag251
ag252
ag253
ag254
ag255
ag329
ag257
ag258
ag259
ag260
ag261
ag330
ag263
ag264
ag265
ag266
ag267
ag331
ag269
ag270
ag223
ag224
ag225
ag221
ag227
ag228
ag229
ag230
ag231
ag325
ag233
ag234
ag235
ag236
ag237
ag326
ag239
ag240
ag241
ag242
ag243
ag327
ag245
ag246
ag247
ag248
ag249
ag328
ag251
ag252
ag253
ag254
ag255
ag329
ag257
ag258
ag259
ag260
ag261
ag330
ag263
ag264
ag265
ag266
ag267
ag331
ag269
ag270
ag223
ag224
ag225
ag221
ag227
ag228
ag229
ag230
ag231
ag325
ag233
ag234
ag235
ag236
ag237
ag326
ag239
ag240
ag241
ag242
ag243
ag327
ag245
ag246
ag247
ag248
ag249
ag328
ag251
ag252
ag253
ag254
ag255
ag329
ag257
ag258
ag259
ag260
ag261
ag330
ag263
ag264
ag265
ag266
ag267
ag331
ag269
ag270
ag223
ag224
ag225
ag221
ag227
ag228
ag229
ag230
ag231
ag325
ag233
ag234
ag235
ag236
ag237
ag326
ag239
ag240
ag241
ag242
ag243
ag327
ag245
ag246
ag247
ag248
ag249
ag328
ag251
ag252
ag253
ag254
ag255
ag329
ag257
ag258
ag259
ag260
ag261
ag330
ag263
ag264
ag265
ag266
ag267
ag331
ag269
ag270
ag223
ag224
ag225
ag221
ag227
ag228
ag229
ag230
ag231
ag325
ag233
ag234
ag235
ag236
ag237
ag326
ag239
ag240
ag241
ag242
ag243
ag327
ag245
ag246
ag247
ag248
ag249
ag328
ag251
ag252
ag253
ag254
ag255
ag329
ag257
ag258
ag259
ag260
ag261
ag330
ag263
ag264
ag265
ag266
ag267
ag331
ag269
ag270
asg348
(lp441
g343
ag344
ag345
ag346
ag347
ag341
ag349
ag350
ag351
ag352
ag353
ag413
ag355
ag356
ag357
ag358
ag359
ag414
ag361
ag362
ag363
ag364
ag365
ag415
ag367
ag368
ag369
ag370
ag371
ag416
ag373
ag374
ag375
ag376
ag377
ag417
ag379
ag380
ag381
ag382
ag383
ag418
ag385
ag386
ag387
ag388
ag389
ag419
ag343
ag344
ag345
ag346
ag347
ag341
ag349
ag350
ag351
ag352
ag353
ag413
ag355
ag356
ag357
ag358
ag359
ag414
ag361
ag362
ag363
ag364
ag365
ag415
ag367
ag368
ag369
ag370
ag371
ag416
ag373
ag374
ag375
ag376
ag377
ag417
ag379
ag380
ag381
ag382
ag383
ag418
ag385
ag386
ag387
ag388
ag389
ag419
ag343
ag344
ag345
ag346
ag347
ag341
ag349
ag350
ag351
ag352
ag353
ag413
ag355
ag356
ag357
ag358
ag359
ag414
ag361
ag362
ag363
ag364
ag365
ag415
ag367
ag368
ag369
ag370
ag371
ag416
ag373
ag374
ag375
ag376
ag377
ag417
ag379
ag380
ag381
ag382
ag383
ag418
ag385
ag386
ag387
ag388
ag389
ag419
ag343
ag344
ag345
ag346
ag347
ag341
ag349
ag350
ag351
ag352
ag353
ag413
ag355
ag356
ag357
ag358
ag359
ag414
ag361
ag362
ag363
ag364
ag365
ag415
ag367
ag368
ag369
ag370
ag371
ag416
ag373
ag374
ag375
ag376
ag377
ag417
ag379
ag380
ag381
ag382
ag383
ag418
ag385
ag386
ag387
ag388
ag389
ag419
ag343
ag344
ag345
ag346
ag347
ag341
ag349
ag350
ag351
ag352
ag353
ag413
ag355
ag356
ag357
ag358
ag359
ag414
ag361
ag362
ag363
ag364
ag365
ag415
ag367
ag368
ag369
ag370
ag371
ag416
ag373
ag374
ag375
ag376
ag377
ag417
ag379
ag380
ag381
ag382
ag383
ag418
ag385
ag386
ag387
ag388
ag389
ag419
ag343
ag344
ag345
ag346
ag347
ag341
ag349
ag350
ag351
ag352
ag353
ag413
ag355
ag356
ag357
ag358
ag359
ag414
ag361
ag362
ag363
ag364
ag365
ag415
ag367
ag368
ag369
ag370
ag371
ag416
ag373
ag374
ag375
ag376
ag377
ag417
ag379
ag380
ag381
ag382
ag383
ag418
ag385
ag386
ag387
ag388
ag389
ag419
ag343
ag344
ag345
ag346
ag347
ag341
ag349
ag350
ag351
ag352
ag353
ag413
ag355
ag356
ag357
ag358
ag359
ag414
ag361
ag362
ag363
ag364
ag365
ag415
ag367
ag368
ag369
ag370
ag371
ag416
ag373
ag374
ag375
ag376
ag377
ag417
ag379
ag380
ag381
ag382
ag383
ag418
ag385
ag386
ag387
ag388
ag389
ag419
ag343
ag344
ag345
ag346
ag347
ag341
ag349
ag350
ag351
ag352
ag353
ag413
ag355
ag356
ag357
ag358
ag359
ag414
ag361
ag362
ag363
ag364
ag365
ag415
ag367
ag368
ag369
ag370
ag371
ag416
ag373
ag374
ag375
ag376
ag377
ag417
ag379
ag380
ag381
ag382
ag383
ag418
ag385
ag386
ag387
ag388
ag389
ag419
asg278
(lp442
g273
ag275
ag276
ag277
ag279
ag280
ag393
ag281
ag282
ag283
ag285
ag286
ag394
ag287
ag288
ag289
ag291
ag292
ag395
ag293
ag294
ag295
ag297
ag298
ag396
ag299
ag300
ag301
ag303
ag304
ag397
ag305
ag306
ag307
ag309
ag310
ag398
ag311
ag312
ag313
ag315
ag316
ag399
ag317
ag318
ag319
ag321
ag322
ag273
ag275
ag276
ag277
ag279
ag280
ag393
ag281
ag282
ag283
ag285
ag286
ag394
ag287
ag288
ag289
ag291
ag292
ag395
ag293
ag294
ag295
ag297
ag298
ag396
ag299
ag300
ag301
ag303
ag304
ag397
ag305
ag306
ag307
ag309
ag310
ag398
ag311
ag312
ag313
ag315
ag316
ag399
ag317
ag318
ag319
ag321
ag322
ag273
ag275
ag276
ag277
ag279
ag280
ag393
ag281
ag282
ag283
ag285
ag286
ag394
ag287
ag288
ag289
ag291
ag292
ag395
ag293
ag294
ag295
ag297
ag298
ag396
ag299
ag300
ag301
ag303
ag304
ag397
ag305
ag306
ag307
ag309
ag310
ag398
ag311
ag312
ag313
ag315
ag316
ag399
ag317
ag318
ag319
ag321
ag322
ag273
ag275
ag276
ag277
ag279
ag280
ag393
ag281
ag282
ag283
ag285
ag286
ag394
ag287
ag288
ag289
ag291
ag292
ag395
ag293
ag294
ag295
ag297
ag298
ag396
ag299
ag300
ag301
ag303
ag304
ag397
ag305
ag306
ag307
ag309
ag310
ag398
ag311
ag312
ag313
ag315
ag316
ag399
ag317
ag318
ag319
ag321
ag322
ag273
ag275
ag276
ag277
ag279
ag280
ag393
ag281
ag282
ag283
ag285
ag286
ag394
ag287
ag288
ag289
ag291
ag292
ag395
ag293
ag294
ag295
ag297
ag298
ag396
ag299
ag300
ag301
ag303
ag304
ag397
ag305
ag306
ag307
ag309
ag310
ag398
ag311
ag312
ag313
ag315
ag316
ag399
ag317
ag318
ag319
ag321
ag322
ag273
ag275
ag276
ag277
ag279
ag280
ag393
ag281
ag282
ag283
ag285
ag286
ag394
ag287
ag288
ag289
ag291
ag292
ag395
ag293
ag294
ag295
ag297
ag298
ag396
ag299
ag300
ag301
ag303
ag304
ag397
ag305
ag306
ag307
ag309
ag310
ag398
ag311
ag312
ag313
ag315
ag316
ag399
ag317
ag318
ag319
ag321
ag322
ag273
ag275
ag276
ag277
ag279
ag280
ag393
ag281
ag282
ag283
ag285
ag286
ag394
ag287
ag288
ag289
ag291
ag292
ag395
ag293
ag294
ag295
ag297
ag298
ag396
ag299
ag300
ag301
ag303
ag304
ag397
ag305
ag306
ag307
ag309
ag310
ag398
ag311
ag312
ag313
ag315
ag316
ag399
ag317
ag318
ag319
ag321
ag322
ag273
ag275
ag276
ag277
ag279
ag280
ag393
ag281
ag282
ag283
ag285
ag286
ag394
ag287
ag288
ag289
ag291
ag292
ag395
ag293
ag294
ag295
ag297
ag298
ag396
ag299
ag300
ag301
ag303
ag304
ag397
ag305
ag306
ag307
ag309
ag310
ag398
ag311
ag312
ag313
ag315
ag316
ag399
ag317
ag318
ag319
ag321
ag322
asg345
(lp443
g343
ag344
ag346
ag347
ag341
ag348
ag349
ag350
ag352
ag353
ag413
ag354
ag355
ag356
ag358
ag359
ag414
ag360
ag361
ag362
ag364
ag365
ag415
ag366
ag367
ag368
ag370
ag371
ag416
ag372
ag373
ag374
ag376
ag377
ag417
ag378
ag379
ag380
ag382
ag383
ag418
ag384
ag385
ag386
ag388
ag389
ag419
ag390
ag343
ag344
ag346
ag347
ag341
ag348
ag349
ag350
ag352
ag353
ag413
ag354
ag355
ag356
ag358
ag359
ag414
ag360
ag361
ag362
ag364
ag365
ag415
ag366
ag367
ag368
ag370
ag371
ag416
ag372
ag373
ag374
ag376
ag377
ag417
ag378
ag379
ag380
ag382
ag383
ag418
ag384
ag385
ag386
ag388
ag389
ag419
ag390
ag343
ag344
ag346
ag347
ag341
ag348
ag349
ag350
ag352
ag353
ag413
ag354
ag355
ag356
ag358
ag359
ag414
ag360
ag361
ag362
ag364
ag365
ag415
ag366
ag367
ag368
ag370
ag371
ag416
ag372
ag373
ag374
ag376
ag377
ag417
ag378
ag379
ag380
ag382
ag383
ag418
ag384
ag385
ag386
ag388
ag389
ag419
ag390
ag343
ag344
ag346
ag347
ag341
ag348
ag349
ag350
ag352
ag353
ag413
ag354
ag355
ag356
ag358
ag359
ag414
ag360
ag361
ag362
ag364
ag365
ag415
ag366
ag367
ag368
ag370
ag371
ag416
ag372
ag373
ag374
ag376
ag377
ag417
ag378
ag379
ag380
ag382
ag383
ag418
ag384
ag385
ag386
ag388
ag389
ag419
ag390
ag343
ag344
ag346
ag347
ag341
ag348
ag349
ag350
ag352
ag353
ag413
ag354
ag355
ag356
ag358
ag359
ag414
ag360
ag361
ag362
ag364
ag365
ag415
ag366
ag367
ag368
ag370
ag371
ag416
ag372
ag373
ag374
ag376
ag377
ag417
ag378
ag379
ag380
ag382
ag383
ag418
ag384
ag385
ag386
ag388
ag389
ag419
ag390
ag343
ag344
ag346
ag347
ag341
ag348
ag349
ag350
ag352
ag353
ag413
ag354
ag355
ag356
ag358
ag359
ag414
ag360
ag361
ag362
ag364
ag365
ag415
ag366
ag367
ag368
ag370
ag371
ag416
ag372
ag373
ag374
ag376
ag377
ag417
ag378
ag379
ag380
ag382
ag383
ag418
ag384
ag385
ag386
ag388
ag389
ag419
ag390
ag343
ag344
ag346
ag347
ag341
ag348
ag349
ag350
ag352
ag353
ag413
ag354
ag355
ag356
ag358
ag359
ag414
ag360
ag361
ag362
ag364
ag365
ag415
ag366
ag367
ag368
ag370
ag371
ag416
ag372
ag373
ag374
ag376
ag377
ag417
ag378
ag379
ag380
ag382
ag383
ag418
ag384
ag385
ag386
ag388
ag389
ag419
ag390
ag343
ag344
ag346
ag347
ag341
ag348
ag349
ag350
ag352
ag353
ag413
ag354
ag355
ag356
ag358
ag359
ag414
ag360
ag361
ag362
ag364
ag365
ag415
ag366
ag367
ag368
ag370
ag371
ag416
ag372
ag373
ag374
ag376
ag377
ag417
ag378
ag379
ag380
ag382
ag383
ag418
ag384
ag385
ag386
ag388
ag389
ag419
ag390
asg346
(lp444
g343
ag344
ag345
ag347
ag341
ag348
ag349
ag350
ag351
ag353
ag413
ag354
ag355
ag356
ag357
ag359
ag414
ag360
ag361
ag362
ag363
ag365
ag415
ag366
ag367
ag368
ag369
ag371
ag416
ag372
ag373
ag374
ag375
ag377
ag417
ag378
ag379
ag380
ag381
ag383
ag418
ag384
ag385
ag386
ag387
ag389
ag419
ag390
ag343
ag344
ag345
ag347
ag341
ag348
ag349
ag350
ag351
ag353
ag413
ag354
ag355
ag356
ag357
ag359
ag414
ag360
ag361
ag362
ag363
ag365
ag415
ag366
ag367
ag368
ag369
ag371
ag416
ag372
ag373
ag374
ag375
ag377
ag417
ag378
ag379
ag380
ag381
ag383
ag418
ag384
ag385
ag386
ag387
ag389
ag419
ag390
ag343
ag344
ag345
ag347
ag341
ag348
ag349
ag350
ag351
ag353
ag413
ag354
ag355
ag356
ag357
ag359
ag414
ag360
ag361
ag362
ag363
ag365
ag415
ag366
ag367
ag368
ag369
ag371
ag416
ag372
ag373
ag374
ag375
ag377
ag417
ag378
ag379
ag380
ag381
ag383
ag418
ag384
ag385
ag386
ag387
ag389
ag419
ag390
ag343
ag344
ag345
ag347
ag341
ag348
ag349
ag350
ag351
ag353
ag413
ag354
ag355
ag356
ag357
ag359
ag414
ag360
ag361
ag362
ag363
ag365
ag415
ag366
ag367
ag368
ag369
ag371
ag416
ag372
ag373
ag374
ag375
ag377
ag417
ag378
ag379
ag380
ag381
ag383
ag418
ag384
ag385
ag386
ag387
ag389
ag419
ag390
ag343
ag344
ag345
ag347
ag341
ag348
ag349
ag350
ag351
ag353
ag413
ag354
ag355
ag356
ag357
ag359
ag414
ag360
ag361
ag362
ag363
ag365
ag415
ag366
ag367
ag368
ag369
ag371
ag416
ag372
ag373
ag374
ag375
ag377
ag417
ag378
ag379
ag380
ag381
ag383
ag418
ag384
ag385
ag386
ag387
ag389
ag419
ag390
ag343
ag344
ag345
ag347
ag341
ag348
ag349
ag350
ag351
ag353
ag413
ag354
ag355
ag356
ag357
ag359
ag414
ag360
ag361
ag362
ag363
ag365
ag415
ag366
ag367
ag368
ag369
ag371
ag416
ag372
ag373
ag374
ag375
ag377
ag417
ag378
ag379
ag380
ag381
ag383
ag418
ag384
ag385
ag386
ag387
ag389
ag419
ag390
ag343
ag344
ag345
ag347
ag341
ag348
ag349
ag350
ag351
ag353
ag413
ag354
ag355
ag356
ag357
ag359
ag414
ag360
ag361
ag362
ag363
ag365
ag415
ag366
ag367
ag368
ag369
ag371
ag416
ag372
ag373
ag374
ag375
ag377
ag417
ag378
ag379
ag380
ag381
ag383
ag418
ag384
ag385
ag386
ag387
ag389
ag419
ag390
ag343
ag344
ag345
ag347
ag341
ag348
ag349
ag350
ag351
ag353
ag413
ag354
ag355
ag356
ag357
ag359
ag414
ag360
ag361
ag362
ag363
ag365
ag415
ag366
ag367
ag368
ag369
ag371
ag416
ag372
ag373
ag374
ag375
ag377
ag417
ag378
ag379
ag380
ag381
ag383
ag418
ag384
ag385
ag386
ag387
ag389
ag419
ag390
as.